(lp0
(lp1
S'899429'
p2
aS'A5799'
p3
aS'276/1952'
p4
aS'JIB - [portion of title exempt]'
p5
aS'1952'
p6
aa(lp7
S'899430'
p8
aS'A5799'
p9
aS'69/1953'
p10
aS'Joint Intelligence Bureau - [portion of title exempt]'
p11
aS'1953'
p12
aa(lp13
S'895214'
p14
aS'AWM123'
p15
aS'1072'
p16
aS'Meeting of Commonwealth Defence Ministers June 1951: Minutes of Meetings and Memoranda. MDM (51) 1-6 Meetings and MDM (51) 1-10 Memoranda'
p17
aS'1951'
p18
aa(lp19
S'850936'
p20
aS'A2031'
p21
aS'272/1953'
p22
aS'Strategic planning in relation to British Commonwealth Defence - probable form and scale of attack against and within the ANZAM region to mid 1955.'
p23
aS'1953'
p24
aa(lp25
S'856980'
p26
aS'D1918'
p27
aS'S2997'
p28
aS"Director's memoranda re Home Office suspect index"
p29
aS'1947'
p30
aa(lp31
S'868631'
p32
aS'A4940'
p33
aS'C1952'
p34
aS'Antarctic policy 1958-1960'
p35
aS'1960'
p36
aa(lp37
S'882195'
p38
aS'D1915'
p39
aS'SA1028'
p40
aS'Mrs WANZEK - deceased - desire of Mrs MACEY to bring children to Australia'
p41
aS'1943'
p42
aa(lp43
S'885006'
p44
aS'D1915'
p45
aS'SA1723'
p46
aS'GOODE Mrs AK - delegate to Geneva conference'
p47
aS'1927'
p48
aa(lp49
S'885276'
p50
aS'D1915'
p51
aS'SA1926'
p52
aS'JUST Anna-Louise - naturalization'
p53
aS'1943'
p54
aa(lp55
S'888244'
p56
aS'D1915'
p57
aS'SA3303'
p58
aS'NEUMANN Victor - naturalization'
p59
aS'1933'
p60
aa(lp61
S'704257'
p62
aS'A1209'
p63
aS'1960/219'
p64
aS'Report of the Logistic Committee - 3rd meeting Bangkok 1960'
p65
aS'1960'
p66
aa(lp67
S'704259'
p68
aS'A1209'
p69
aS'1960/446'
p70
aS'Plan for defence of South East Asia MPO Plan 4/60'
p71
aS'1960'
p72
aa(lp73
S'704262'
p74
aS'A1209'
p75
aS'1960/430'
p76
aS'Main trends in Soviet capabilities and policies 1959-1964'
p77
aS'1960'
p78
aa(lp79
S'705133'
p80
aS'A5954'
p81
aS'1458/1'
p82
aS'Possible Developments in Laos up to 1960'
p83
aS'1956'
p84
aa(lp85
S'705137'
p86
aS'A5954'
p87
aS'1458/5'
p88
aS'Probable Communist Courses of Action in Asia up to 1960'
p89
aS'1956'
p90
aa(lp91
S'706560'
p92
aS'A816'
p93
aS'25/301/604'
p94
aS'Intelligence in the Middle East'
p95
aS'1957'
p96
aa(lp97
S'707067'
p98
aS'A1209'
p99
aS'1960/92 PART 2'
p100
aS'JIC London - weekly review of current intelligence - 1960'
p101
aS'1960'
p102
aa(lp103
S'707068'
p104
aS'A1209'
p105
aS'1960/92 PART 1'
p106
aS'JIC London - weekly review of current intelligence 1960'
p107
aS'1960'
p108
aa(lp109
S'707091'
p110
aS'A1209'
p111
aS'1960/17'
p112
aS'Main trends in Soviet capabilities and policies 1958-1963 [part of title exempt]'
p113
aS'1958'
p114
aa(lp115
S'709941'
p116
aS'A1209'
p117
aS'1959/916'
p118
aS'SEATO - Logistics Committee meeting Bangkok - August 1959. Report'
p119
aS'1959'
p120
aa(lp121
S'709954'
p122
aS'A1209'
p123
aS'1959/861'
p124
aS'11th SEATO Military Advisers Meeting MPO Plan 2B/59'
p125
aS'1959'
p126
aa(lp127
S'709964'
p128
aS'A1209'
p129
aS'1959/1040'
p130
aS'SEATO 5th intelligence committee meeting Bangkok Nov 1959 Australian representation'
p131
aS'1959'
p132
aa(lp133
S'709970'
p134
aS'A1209'
p135
aS'1959/1172'
p136
aS'SEATO - Report of the intelligence committee meeting Nov 1959'
p137
aS'1959'
p138
aa(lp139
S'722274'
p140
aS'A4398'
p141
aS'25/301 PART 1'
p142
aS'L14 subject registration booklet for the 25/301/- section of Defence classified file series, A816: intelligence (file numbers 5 - 616)  - Book 1'
p143
aS'1956'
p144
aa(lp145
S'724696'
p146
aS'A1209'
p147
aS'1957/5694'
p148
aS'SEATO Council Meeting, Canberra 1957. Daily verbatim record'
p149
aS'1957'
p150
aa(lp151
S'724702'
p152
aS'A1209'
p153
aS'1957/5676'
p154
aS'ANZAM Military Staff Planners Meeting - Pearl Harbour - October 1955'
p155
aS'1956'
p156
aa(lp157
S'726732'
p158
aS'A816'
p159
aS'14/301/762'
p160
aS'Operation of SEATO plans in relation to Hong Kong'
p161
aS'1957'
p162
aa(lp163
S'726796'
p164
aS'A367'
p165
aS'C108490'
p166
aS'CONAGHAN, Robert A.'
p167
aS'1950'
p168
aa(lp169
S'726798'
p170
aS'A367'
p171
aS'C108408'
p172
aS'BUDDLE, Thomas Gordon, THOMAS, John Henry'
p173
aS'1953'
p174
aa(lp175
S'726898'
p176
aS'A1209'
p177
aS'1957/5697'
p178
aS'USSR. Weapons development - general'
p179
aS'1962'
p180
aa(lp181
S'726900'
p182
aS'A1209'
p183
aS'1957/6044'
p184
aS'ANZAM Intelligence Meeting, Singapore, November 1956'
p185
aS'1957'
p186
aa(lp187
S'733835'
p188
aS'A5954'
p189
aS'2365/2'
p190
aS'Meeting of [a UK officer] with Defence Committee 8 April 1954'
p191
aS'1954'
p192
aa(lp193
S'733839'
p194
aS'A5954'
p195
aS'2365/10'
p196
aS'Defence Signals Branch - [remainder of title exempt]'
p197
aS'1954'
p198
aa(lp199
S'733840'
p200
aS'A5954'
p201
aS'2365/11'
p202
aS'Intelligence sources and priorities report by Mr STEWART'
p203
aS'1954'
p204
aa(lp205
S'735073'
p206
aS'A2031'
p207
aS'30/1959'
p208
aS'South East Asian Trade Organization - Tenth Military Advisers Meeting - South East Asian Trade Organization Military Planning Office plan 5/59'
p209
aS'1959'
p210
aa(lp211
S'735085'
p212
aS'A2031'
p213
aS'57/1959'
p214
aS'South East Asian Trade Organization - Planning to counter communist insurgency'
p215
aS'1959'
p216
aa(lp217
S'735105'
p218
aS'A2031'
p219
aS'91/1959'
p220
aS'South East Asian Trade Organization Military Planning Office Plan 5B/59 - Plan for the introduction and maintenance of a South East Asian Trade Organization force to assist the Royal Laotian Government to counter Communist insurgency in Laos'
p221
aS'1959'
p222
aa(lp223
S'735112'
p224
aS'A2031'
p225
aS'107/1959'
p226
aS'South East Asian Trade Organization Military planning to counter Communist insurgency in Laos'
p227
aS'1959'
p228
aa(lp229
S'737100'
p230
aS'A1209'
p231
aS'1957/5065'
p232
aS'Naval study of the SEATO area - including the control and protection of shipping [97 pp]'
p233
aS'1958'
p234
aa(lp235
S'737108'
p236
aS'A1209'
p237
aS'1957/4587'
p238
aS"ANZUS staff planners' meeting, Pearl Harbour. Report No.3, 1956"
p239
aS'1956'
p240
aa(lp241
S'737183'
p242
aS'A1209'
p243
aS'1957/5858'
p244
aS"Commonwealth Defence Ministers' Conference June 1951. Minutes and memoranda"
p245
aS'1951'
p246
aa(lp247
S'737205'
p248
aS'A1209'
p249
aS'1957/5851'
p250
aS'SEATO. Report of Combined Civil and Military Conference on counter-subversion. Manila 1955'
p251
aS'1955'
p252
aa(lp253
S'737218'
p254
aS'A1209'
p255
aS'1957/5849'
p256
aS"SEATO. Military Staff Planners' Conference, Manila. Psychological warfare report 1955"
p257
aS'1955'
p258
aa(lp259
S'737227'
p260
aS'A1209'
p261
aS'1957/5848'
p262
aS"SEATO. Manila Staff Planners' Conference 1955. Report on military anti-subversion"
p263
aS'1955'
p264
aa(lp265
S'737234'
p266
aS'A1209'
p267
aS'1957/5847'
p268
aS'SEATO. Manila Conference Report 1955 on unconventional warfare'
p269
aS'1955'
p270
aa(lp271
S'745988'
p272
aS'A1838'
p273
aS'TS163/11/52 PART 1'
p274
aS'Egypt - Relations with the USSR [1 page]'
p275
aS'1955'
p276
aa(lp277
S'751900'
p278
aS'M1509'
p279
aS'28'
p280
aS'London conference, 1948.'
p281
aS'1952'
p282
aa(lp283
S'755633'
p284
aS'A816'
p285
aS'19/322/90'
p286
aS'JIC [Portion of title exempt] Intelligence summary no. 37'
p287
aS'1957'
p288
aa(lp289
S'755638'
p290
aS'A816'
p291
aS'14/301/475'
p292
aS'Forward Planning No. 1'
p293
aS'1955'
p294
aa(lp295
S'755649'
p296
aS'A816'
p297
aS'19/310/167'
p298
aS'Soviet and satellite war potential 1953-1956'
p299
aS'1953'
p300
aa(lp301
S'755654'
p302
aS'A816'
p303
aS'25/301/557'
p304
aS"Five Power Staff Planners' Conference, September 1953. Intelligence studies"
p305
aS'1954'
p306
aa(lp307
S'756708'
p308
aS'F504'
p309
aS'1'
p310
aS'Commonwealth Census 1933 (Instructions and Correspondence) Attachments: 1) Census of the Commonwealth of Australia 4th April 1921 Census bulletin No 7 2) An Act to amend the Census and Statistics Act No33 of 1920 3) An Act relating to the Census and Stat6istics of the Commonwealth No15 of 1905'
p311
aS'1933'
p312
aa(lp313
S'759297'
p314
aS'A6119'
p315
aS'543'
p316
aS'FRY Eric Charles Volume 2 [134pp]'
p317
aS'1963'
p318
aa(lp319
S'763557'
p320
aS'AWM122'
p321
aS'70/2029'
p322
aS'Malaysian Armed Forces (Jun-Oct 1968)'
p323
aS'1968'
p324
aa(lp325
S'764250'
p326
aS'A1209'
p327
aS'1961/1244'
p328
aS'SEATO - Military Advisers 15th Conference - Report.'
p329
aS'1961'
p330
aa(lp331
S'764253'
p332
aS'A1209'
p333
aS'1961/1375'
p334
aS'SEATO - Intelligence Committee report of the meeting'
p335
aS'1962'
p336
aa(lp337
S'766601'
p338
aS'A1209'
p339
aS'1961/97'
p340
aS'SEATO Tank investigation team - report on the best class of tank for use in Thailand.'
p341
aS'1961'
p342
aa(lp343
S'767912'
p344
aS'A1209'
p345
aS'1961/411'
p346
aS'SEATO - Report of the Logistics Committee'
p347
aS'1961'
p348
aa(lp349
S'779452'
p350
aS'A816'
p351
aS'11/301/930'
p352
aS'Brief for the Canadian Delegation to the Geneva Convention'
p353
aS'1954'
p354
aa(lp355
S'784984'
p356
aS'A1209'
p357
aS'1961/740'
p358
aS'SEATO - Council of Ministers - Verbatim report of 7th Meeting'
p359
aS'1961'
p360
aa(lp361
S'829155'
p362
aS'A1209'
p363
aS'1960/725'
p364
aS'Title exempt'
p365
aS'1960'
p366
aa(lp367
S'829983'
p368
aS'AWM98'
p369
aS'R220/1/16'
p370
aS'[Headquarters, Australian Force Vietnam (HQ AFV):] Conferences - General - Defence seminars'
p371
aS'1967'
p372
aa(lp373
S'832857'
p374
aS'A1209'
p375
aS'1961/891'
p376
aS'Report of the SEATO [South East Asia Treaty organisation] communications - Electronics committee - Fifth meeting'
p377
aS'1961'
p378
aa(lp379
S'832913'
p380
aS'A1209'
p381
aS'1961/569'
p382
aS'Report of SEATO military advisers - 14th Conference'
p383
aS'1961'
p384
aa(lp385
S'834117'
p386
aS'A816'
p387
aS'14/301/418'
p388
aS'Plans for the defence of sea communications in the ANZAM Region'
p389
aS'1954'
p390
aa(lp391
S'841364'
p392
aS'A1838'
p393
aS'TS205/11/27'
p394
aS'Syria relations with Saudi Arabia'
p395
aS'1957'
p396
aa(lp397
S'841401'
p398
aS'A1838'
p399
aS'TS379/11/5'
p400
aS'South East Asia - Joint Intelligence Committee - Far East Summary [JIC FE]'
p401
aS'1958'
p402
aa(lp403
S'841521'
p404
aS'A1838'
p405
aS'TS654/3/9'
p406
aS'Middle East. Intelligence summaries.'
p407
aS'1956'
p408
aa(lp409
S'841640'
p410
aS'A1838'
p411
aS'TS656/3/9'
p412
aS'Special Intelligence - Joint Intelligence Committee - Six monthly review'
p413
aS'1956'
p414
aa(lp415
S'841731'
p416
aS'A1838'
p417
aS'TS666/57/5'
p418
aS'Probability of Indonesia becoming Communist and threat therefrom [74 pp]'
p419
aS'1957'
p420
aa(lp421
S'842393'
p422
aS'A1838'
p423
aS'TS690/4/5 PART 1'
p424
aS'Joint Intelligence Committee - London Reports'
p425
aS'1959'
p426
aa(lp427
S'842404'
p428
aS'A1838'
p429
aS'TS690/4/5 PART 2'
p430
aS'United Kingdom Defence Organisation - Joint Intelligence Committee - London Reports'
p431
aS'1960'
p432
aa(lp433
S'842538'
p434
aS'A1838'
p435
aS'TS696/2/2 PART 5'
p436
aS'Regional Defence - Indonesia - Australian strategic interest'
p437
aS'1958'
p438
aa(lp439
S'842550'
p440
aS'A1838'
p441
aS'TS696/2/7 PART 2'
p442
aS'Indonesia - ANZUS Consideration [28pp]'
p443
aS'1958'
p444
aa(lp445
S'842580'
p446
aS'A1838'
p447
aS'TS696/3/8'
p448
aS'Importance of Indonesia to Australia and regional defence'
p449
aS'1958'
p450
aa(lp451
S'842817'
p452
aS'A1838'
p453
aS'TS851/12/23'
p454
aS'Joint Intelligence Committee weekly review of current intelligence on Middle East'
p455
aS'1957'
p456
aa(lp457
S'842916'
p458
aS'A1838'
p459
aS'TS899/6/6/1'
p460
aS'Commonwealth Prime Ministers Conference 1960 - Minutes and Proceedings [290pp]'
p461
aS'1960'
p462
aa(lp463
S'842923'
p464
aS'A1838'
p465
aS'TS917/2'
p466
aS'United Nations Anglo Argentine Dispute - Falkland Islands'
p467
aS'1948'
p468
aa(lp469
S'340544'
p470
aS'F1'
p471
aS'1945/94'
p472
aS'Lunatics'
p473
aS'1948'
p474
aa(lp475
S'424739'
p476
aS'A1068'
p477
aS'DL47/5/7'
p478
aS'Hong Kong'
p479
aS'1946'
p480
aa(lp481
S'424741'
p482
aS'A1068'
p483
aS'DL47/5/8'
p484
aS'Far East (Strength of Armed Forces)'
p485
aS'1948'
p486
aa(lp487
S'432043'
p488
aS'A1838'
p489
aS'3034/2/1 PART 2 ANNEX'
p490
aS'Indonesia - Political - General'
p491
aS'1959'
p492
aa(lp493
S'441427'
p494
aS'A3411'
p495
aS'48'
p496
aS'South-East Asia Treaty Organisation. Second Meeting of the Council of Ministers held at Karachi (from 6-8 March 1956)'
p497
aS'1956'
p498
aa(lp499
S'441428'
p500
aS'A3411'
p501
aS'49'
p502
aS'South-East Asia Treaty Organisation. Report of the Council Representatives to the Council, March 1956'
p503
aS'1956'
p504
aa(lp505
S'441429'
p506
aS'A3411'
p507
aS'50'
p508
aS'SEATO Council 1957 Canberra. Daily verbatim record.'
p509
aS'1957'
p510
aa(lp511
S'441430'
p512
aS'A3411'
p513
aS'51'
p514
aS'South-East Asia Treaty Organisation. Supplement to the Report of the Council Representatives to the Council, March 1957'
p515
aS'1957'
p516
aa(lp517
S'441431'
p518
aS'A3411'
p519
aS'151'
p520
aS'South-East Asia Collective Defence Treaty. Report of Logistics Ad Hoc Sub-committee Meeting, Melbourne, Australia, August 1955'
p521
aS'1955'
p522
aa(lp523
S'441432'
p524
aS'A3411'
p525
aS'4'
p526
aS'SEATO [South-East Asia Treaty Organisation]. Second Meeting of the Committee of Economic Experts, Bangkok, Thailand, 12-18 January 1956'
p527
aS'1956'
p528
aa(lp529
S'441496'
p530
aS'A5462'
p531
aS'510/4/4'
p532
aS'[US government] and OIR reports to Department of External Affairs'
p533
aS'1957'
p534
aa(lp535
S'442601'
p536
aS'A1838'
p537
aS'TS686/4 PART 5'
p538
aS'ANZUS Military Machinery'
p539
aS'1957'
p540
aa(lp541
S'442995'
p542
aS'A816'
p543
aS'25/301/508'
p544
aS'United States - Australia security agreements. Information released through UK.'
p545
aS'1957'
p546
aa(lp547
S'444571'
p548
aS'A6122'
p549
aS'623'
p550
aS'Communist Party of Australia - Tasmania Launceston Rail Branch'
p551
aS'1949'
p552
aa(lp553
S'444573'
p554
aS'A6122'
p555
aS'680'
p556
aS'CPA [Communist Party of Australia] Branches Queensland - Ekibin Branch'
p557
aS'1949'
p558
aa(lp559
S'445107'
p560
aS'A816'
p561
aS'14/301/540'
p562
aS'Probable form and scale of attack against Malaya - Joint Intelligence assessment'
p563
aS'1954'
p564
aa(lp565
S'445917'
p566
aS'A1838'
p567
aS'TS100/2/2'
p568
aS'[Title exempt]'
p569
aS'1983'
p570
aa(lp571
S'445921'
p572
aS'A10872'
p573
aS'100/1/8'
p574
aS'Australian service in wartime [Australian Secret Intelligence Service, ASIS]'
p575
aS'1981'
p576
aa(lp577
S'445923'
p578
aS'A10872'
p579
aS'100/1/5'
p580
aS'Australian Service - Organisation questions [Australian Secret Intelligence Service, ASIS]'
p581
aS'1958'
p582
aa(lp583
S'446310'
p584
aS'A6122'
p585
aS'793'
p586
aS'CPA [Communist Party of Australia] - NSW - Teachers College Branch'
p587
aS'1957'
p588
aa(lp589
S'446314'
p590
aS'A6122'
p591
aS'798'
p592
aS'CPA [Communist Party of Australia] - NSW - Repairs Branch'
p593
aS'1956'
p594
aa(lp595
S'446322'
p596
aS'A6122'
p597
aS'837'
p598
aS'Communist Party of Australia - (South Australia) Glenunga Branch'
p599
aS'1957'
p600
aa(lp601
S'446385'
p602
aS'A6122'
p603
aS'838'
p604
aS'Communist Party of Australia - (South Australia) Queenstown'
p605
aS'1957'
p606
aa(lp607
S'446386'
p608
aS'A6122'
p609
aS'839'
p610
aS'Communist Party of Australia - (South Australia) Adelaide Steamship Company'
p611
aS'1957'
p612
aa(lp613
S'446388'
p614
aS'A6122'
p615
aS'841'
p616
aS'Communist Party of Australia - South Australia. West Adelaide Branch'
p617
aS'1957'
p618
aa(lp619
S'446389'
p620
aS'A6122'
p621
aS'842'
p622
aS'Communist Party of Australia - South Australia. Eastwood Branch'
p623
aS'1957'
p624
aa(lp625
S'446391'
p626
aS'A6122'
p627
aS'844'
p628
aS'Communist Party of Australia - South Australia. Unley Branch'
p629
aS'1957'
p630
aa(lp631
S'446392'
p632
aS'A6122'
p633
aS'845'
p634
aS'Communist Party of Australia - South Australia. Edwardstown'
p635
aS'1957'
p636
aa(lp637
S'446393'
p638
aS'A6122'
p639
aS'846'
p640
aS'Communist Party of Australia - Industrial Branch - South Australia'
p641
aS'1957'
p642
aa(lp643
S'446394'
p644
aS'A6122'
p645
aS'847'
p646
aS'Communist Party of Australia - South Australia - ICI Branch'
p647
aS'1957'
p648
aa(lp649
S'446397'
p650
aS'A6122'
p651
aS'850'
p652
aS'Communist Party of Australia - South Australia - Waterfront Branch'
p653
aS'1957'
p654
aa(lp655
S'446399'
p656
aS'A6122'
p657
aS'852'
p658
aS'Communist Party of Australia - South Australia - Hillcrest Branch'
p659
aS'1957'
p660
aa(lp661
S'446400'
p662
aS'A6122'
p663
aS'853'
p664
aS'Communist Party of Australia - South Australia - Birkenhead'
p665
aS'1957'
p666
aa(lp667
S'446401'
p668
aS'A6122'
p669
aS'854'
p670
aS'Communist Party of Australia Plans for operations - Tasmania'
p671
aS'1957'
p672
aa(lp673
S'446700'
p674
aS'A1838'
p675
aS'100/12/7'
p676
aS'Circulation of Material (Including External Affairs Requirements)'
p677
aS'1964'
p678
aa(lp679
S'446701'
p680
aS'A10872'
p681
aS'100/1/9'
p682
aS'Australian Service Reserve Training in peace [Australian Secret Intelligence Service, ASIS]'
p683
aS'1980'
p684
aa(lp685
S'446702'
p686
aS'A10872'
p687
aS'100/1/6'
p688
aS'The Director - Terms and conditions of employment - General policy file [Australian Secret Intelligence Service, ASIS]'
p689
aS'1980'
p690
aa(lp691
S'446703'
p692
aS'A10872'
p693
aS'100/1/4'
p694
aS'Staff questions arising from change in method of working [Australian Secret Intelligence Service, ASIS]'
p695
aS'1980'
p696
aa(lp697
S'446704'
p698
aS'A10872'
p699
aS'100/1/1 PART 2'
p700
aS'Australian Service : Charter and Functions, Part 2 [Australian Secret Intelligence Service, ASIS]'
p701
aS'1964'
p702
aa(lp703
S'446705'
p704
aS'A10872'
p705
aS'100/1/1 PART 1'
p706
aS'Australian Service : Charter and Functions, Part 1 [Australian Secret Intelligence Service, ASIS]'
p707
aS'1957'
p708
aa(lp709
S'448583'
p710
aS'SP1714/1'
p711
aS'N61439'
p712
aS'Danish and other suspects'
p713
aS'1945'
p714
aa(lp715
S'449029'
p716
aS'A816'
p717
aS'25/301/496'
p718
aS'Exchange of Intelligence Information with United States'
p719
aS'1952'
p720
aa(lp721
S'449030'
p722
aS'A816'
p723
aS'25/301/608'
p724
aS'Exchange of Defence Information between Canada and Australia'
p725
aS'1957'
p726
aa(lp727
S'450910'
p728
aS'A1838'
p729
aS'1495/9/1 PART 2'
p730
aS'Antarctica - Japanese interests [3cm]'
p731
aS'1969'
p732
aa(lp733
S'451038'
p734
aS'A1838'
p735
aS'1495/3/2/1/7'
p736
aS'Antarctica. Australian interests. Legal position and administration. General policy. Inspection and control.'
p737
aS'1967'
p738
aa(lp739
S'451183'
p740
aS'A6122'
p741
aS'827'
p742
aS'Communist Party of Australia - Victoria - BALWYN branch'
p743
aS'1956'
p744
aa(lp745
S'451184'
p746
aS'A6122'
p747
aS'828'
p748
aS'Communist Party of Australia - Victoria - Burwood branch'
p749
aS'1956'
p750
aa(lp751
S'451192'
p752
aS'A6122'
p753
aS'866'
p754
aS'CPA [Communist Party of Australia] (Western Australia) - Claremont Branch'
p755
aS'1956'
p756
aa(lp757
S'451193'
p758
aS'A6122'
p759
aS'867'
p760
aS'CPA [Communist Party of Australia] (Western Australia) - Applecross branch'
p761
aS'1956'
p762
aa(lp763
S'451194'
p764
aS'A6122'
p765
aS'868'
p766
aS'CPA [Communist Party of Australia] - (Western Australia) - South Perth branch'
p767
aS'1956'
p768
aa(lp769
S'451195'
p770
aS'A6122'
p771
aS'869'
p772
aS'CPA [Communist Party of Australia] - (Western Australia) - Kalamunda branch'
p773
aS'1956'
p774
aa(lp775
S'451196'
p776
aS'A6122'
p777
aS'870'
p778
aS'CPA [Communist Party of Australia] - (Western Australia) - Leederville Branch'
p779
aS'1956'
p780
aa(lp781
S'451199'
p782
aS'A6122'
p783
aS'873'
p784
aS'Tasmania - Public meetings'
p785
aS'1956'
p786
aa(lp787
S'451200'
p788
aS'A6122'
p789
aS'874'
p790
aS'CPA [Communist Party of Australia] - Tasmania - Beauty Point branch'
p791
aS'1956'
p792
aa(lp793
S'451208'
p794
aS'A6122'
p795
aS'892'
p796
aS'Communist Party of Australia - Western Australia - Bassendean Branch'
p797
aS'1956'
p798
aa(lp799
S'451209'
p800
aS'A6122'
p801
aS'893'
p802
aS'Communist Party of Australia - Western Australia - Belmont Park Branch'
p803
aS'1956'
p804
aa(lp805
S'451210'
p806
aS'A6122'
p807
aS'894'
p808
aS'Communist Party of Australia - Western Australia - Nedlands Branch'
p809
aS'1956'
p810
aa(lp811
S'451211'
p812
aS'A6122'
p813
aS'895'
p814
aS'CPA [Communist Party of Australia] - Tasmania - Finance'
p815
aS'1956'
p816
aa(lp817
S'451270'
p818
aS'A6122'
p819
aS'825'
p820
aS'Communist Party of Australia - Kensington branch'
p821
aS'1958'
p822
aa(lp823
S'451272'
p824
aS'A6122'
p825
aS'823'
p826
aS'Communist Party of Australia - Saint Vincents Hospital Building branch'
p827
aS'1958'
p828
aa(lp829
S'451277'
p830
aS'A6122'
p831
aS'818'
p832
aS'Communist Party in Australia - Victoria - North Melbourne branch'
p833
aS'1958'
p834
aa(lp835
S'451279'
p836
aS'A6122'
p837
aS'795'
p838
aS'CPA [Communist Party of Australia] - NSW - Vaucluse branch'
p839
aS'1958'
p840
aa(lp841
S'451828'
p842
aS'A6122'
p843
aS'906'
p844
aS'Communist Party of Australia (Western Australia) aggregate meetings'
p845
aS'1956'
p846
aa(lp847
S'451834'
p848
aS'A6122'
p849
aS'908'
p850
aS'Communist Party of Australia (Tasmania) Aggregate meetings'
p851
aS'1956'
p852
aa(lp853
S'451835'
p854
aS'A6122'
p855
aS'909'
p856
aS'Communist Party of Australia (New South Wales) Aggregate meetings'
p857
aS'1956'
p858
aa(lp859
S'451836'
p860
aS'A6122'
p861
aS'910'
p862
aS'Communist Party of Australia. Social activities - Queensland'
p863
aS'1956'
p864
aa(lp865
S'451843'
p866
aS'A6122'
p867
aS'914'
p868
aS'Communist Party of Australia - Progress Association faction - New South Wales'
p869
aS'1956'
p870
aa(lp871
S'451924'
p872
aS'A6119'
p873
aS'322'
p874
aS'Audrey Elsie BLAKE volume 3'
p875
aS'1964'
p876
aa(lp877
S'453600'
p878
aS'A816'
p879
aS'25/301/572'
p880
aS'[portion of title exempt] Intelligence Estimates [portion of title exempt] [0.5cm]'
p881
aS'1954'
p882
aa(lp883
S'453601'
p884
aS'A816'
p885
aS'25/301/555'
p886
aS'United States Intelligence - Report by JIB [Joint Intelligence Bureau] Representative - Washington'
p887
aS'1957'
p888
aa(lp889
S'454415'
p890
aS'A6122'
p891
aS'994'
p892
aS'Communist Party of Australia, "Corvette", Garden Island Publications'
p893
aS'1956'
p894
aa(lp895
S'454420'
p896
aS'A6122'
p897
aS'992'
p898
aS'Communist Party of Australia. Carriage News.'
p899
aS'1956'
p900
aa(lp901
S'454677'
p902
aS'A10872'
p903
aS'100/1/2'
p904
aS'Australian Service Directive (Interim Directive 1957 and Revision) - [Australian Secret Intelligence Service, ASIS]'
p905
aS'1963'
p906
aa(lp907
S'454683'
p908
aS'A6122'
p909
aS'1012'
p910
aS'Communist Party of Australia - South Australia. Schools'
p911
aS'1956'
p912
aa(lp913
S'454687'
p914
aS'A6122'
p915
aS'1008'
p916
aS'Communist Party of Australia. Security within Communist Party of Australia'
p917
aS'1956'
p918
aa(lp919
S'454694'
p920
aS'A6122'
p921
aS'1001'
p922
aS'Communist Party of Australia - Junior League Magazine'
p923
aS'1956'
p924
aa(lp925
S'454699'
p926
aS'A6122'
p927
aS'998'
p928
aS'Communist Party of Australia - Dynamo'
p929
aS'1956'
p930
aa(lp931
S'457294'
p932
aS'A6122'
p933
aS'885'
p934
aS'Communist Party of Australia - Canberra Propaganda'
p935
aS'1956'
p936
aa(lp937
S'457481'
p938
aS'A6122'
p939
aS'1023'
p940
aS'Communist Party of Australia - Victoria, Schools'
p941
aS'1956'
p942
aa(lp943
S'457492'
p944
aS'A6122'
p945
aS'1025'
p946
aS'Communist Party of Australia - Social activities, general'
p947
aS'1958'
p948
aa(lp949
S'457496'
p950
aS'A6122'
p951
aS'1026'
p952
aS'Communist Party of Australia. New South Wales Schools [Volume 1]'
p953
aS'1958'
p954
aa(lp955
S'457502'
p956
aS'A6122'
p957
aS'1027'
p958
aS'Communist Party of Australia. New South Wales schools [Volume 2]'
p959
aS'1956'
p960
aa(lp961
S'457507'
p962
aS'A6122'
p963
aS'1028'
p964
aS'Communist Party of Australia - Tasmania, illegal apparatus'
p965
aS'1956'
p966
aa(lp967
S'457521'
p968
aS'A6122'
p969
aS'1031'
p970
aS'Communist Party of Australia - campaigns to increase membership and gain public support'
p971
aS'1956'
p972
aa(lp973
S'457527'
p974
aS'A6122'
p975
aS'1032'
p976
aS'Communist Party of Australia - New South Wales, social activities'
p977
aS'1956'
p978
aa(lp979
S'457545'
p980
aS'A6122'
p981
aS'1035'
p982
aS'Communist Party of Australia - Tasmania, schools'
p983
aS'1956'
p984
aa(lp985
S'458230'
p986
aS'A6122'
p987
aS'1036'
p988
aS'Communist Party of Australia. Western Australia. Social Activities'
p989
aS'1958'
p990
aa(lp991
S'458275'
p992
aS'A6122'
p993
aS'945'
p994
aS'Communist Part of Australia. Electric Press'
p995
aS'1958'
p996
aa(lp997
S'458652'
p998
aS'A6122'
p999
aS'1058'
p1000
aS"Communist Party of Australia - New South Wales, Taxi drivers' branch"
p1001
aS'1958'
p1002
aa(lp1003
S'458655'
p1004
aS'A6122'
p1005
aS'1061'
p1006
aS'Communist Party of Australia - New South Wales, Arrow Branch'
p1007
aS'1958'
p1008
aa(lp1009
S'458657'
p1010
aS'A6122'
p1011
aS'1063'
p1012
aS'Communist Party of Australia - New South Wales, Brookvale - Manly Branch'
p1013
aS'1958'
p1014
aa(lp1015
S'458658'
p1016
aS'A6122'
p1017
aS'1064'
p1018
aS'Communist Party of Australia - New South Wales, Albury Branch'
p1019
aS'1958'
p1020
aa(lp1021
S'462573'
p1022
aS'A6122'
p1023
aS'904'
p1024
aS'CPA [Communist Party of Australia] - Western Australia - Cadres'
p1025
aS'1956'
p1026
aa(lp1027
S'462676'
p1028
aS'A6122'
p1029
aS'902'
p1030
aS'CPA [Communist Party of Australia] Donors of money & property'
p1031
aS'1958'
p1032
aa(lp1033
S'462686'
p1034
aS'A6122'
p1035
aS'970'
p1036
aS'Communist Party of Australia "Magnet" - Volume 1'
p1037
aS'1960'
p1038
aa(lp1039
S'462688'
p1040
aS'A6122'
p1041
aS'971'
p1042
aS'Communist Party of Australia. South Australia. Gas Company'
p1043
aS'1958'
p1044
aa(lp1045
S'462690'
p1046
aS'A6122'
p1047
aS'972'
p1048
aS'Communist Party of Australia. Western Australia, Carlisle Branch'
p1049
aS'1958'
p1050
aa(lp1051
S'462692'
p1052
aS'A6122'
p1053
aS'973'
p1054
aS'Communist Party of Australia. Western Australia, Bunbury'
p1055
aS'1958'
p1056
aa(lp1057
S'462704'
p1058
aS'A6122'
p1059
aS'964'
p1060
aS'Communist Party of Australia. Victoria, Port Melbourne Branch'
p1061
aS'1958'
p1062
aa(lp1063
S'462722'
p1064
aS'A6122'
p1065
aS'959'
p1066
aS'Communist Party of Australia. New South Wales, Morts Dock Branch'
p1067
aS'1958'
p1068
aa(lp1069
S'462753'
p1070
aS'A6122'
p1071
aS'930'
p1072
aS'Communist Party of Australia. Queensland Cadres'
p1073
aS'1958'
p1074
aa(lp1075
S'462754'
p1076
aS'A6122'
p1077
aS'928'
p1078
aS'Communist Party of Australia. Victoria. List of Undercover Addresses'
p1079
aS'1958'
p1080
aa(lp1081
S'465698'
p1082
aS'A1838'
p1083
aS'3034/2/1 PART 1 ANNEX'
p1084
aS'Indonesia - Political - General'
p1085
aS'1958'
p1086
aa(lp1087
S'467065'
p1088
aS'A6122'
p1089
aS'1071'
p1090
aS'Communist Party of Australia - New South Wales, Waterloo Branch'
p1091
aS'1956'
p1092
aa(lp1093
S'467069'
p1094
aS'A6122'
p1095
aS'1072'
p1096
aS'Communist Party of Australia - New South Wales, Menindee Branch'
p1097
aS'1956'
p1098
aa(lp1099
S'467078'
p1100
aS'A6122'
p1101
aS'1074'
p1102
aS'Communist Party of Australia - New South Wales, Evans Head Branch'
p1103
aS'1956'
p1104
aa(lp1105
S'467093'
p1106
aS'A6122'
p1107
aS'1079'
p1108
aS"Communist Party of Australia (New South Wales) Students' Congress"
p1109
aS'1956'
p1110
aa(lp1111
S'467096'
p1112
aS'A6122'
p1113
aS'1080'
p1114
aS'Communist Party of Australia (illegal apparatus) expenditure'
p1115
aS'1956'
p1116
aa(lp1117
S'467098'
p1118
aS'A6122'
p1119
aS'1081'
p1120
aS'Communist Party of Australia - illegal apparatus (illegal publications)'
p1121
aS'1956'
p1122
aa(lp1123
S'467125'
p1124
aS'A6122'
p1125
aS'1088'
p1126
aS'Communist Party of Australia - Western Australia - illegal apparatus'
p1127
aS'1956'
p1128
aa(lp1129
S'467129'
p1130
aS'A6122'
p1131
aS'1089'
p1132
aS'Communist Party of Australia South Australia - undercover addresses'
p1133
aS'1956'
p1134
aa(lp1135
S'467132'
p1136
aS'A6122'
p1137
aS'1090'
p1138
aS'Communist Party of Australia - Queensland - illegal apparatus'
p1139
aS'1956'
p1140
aa(lp1141
S'467139'
p1142
aS'A6122'
p1143
aS'1092'
p1144
aS'Communist Party of Australia - New South Wales - illegal apparatus'
p1145
aS'1956'
p1146
aa(lp1147
S'467757'
p1148
aS'A6122'
p1149
aS'1094'
p1150
aS'Communist Party of Australia - Tasmania - illegal apparatus'
p1151
aS'1956'
p1152
aa(lp1153
S'467764'
p1154
aS'A6122'
p1155
aS'1103'
p1156
aS'Communist Party of Australia - use of airfields'
p1157
aS'1956'
p1158
aa(lp1159
S'467778'
p1160
aS'A6122'
p1161
aS'1123'
p1162
aS'Communist Party of Australia - Lists of Vehicles'
p1163
aS'1956'
p1164
aa(lp1165
S'470972'
p1166
aS'A816'
p1167
aS'11/301/776'
p1168
aS"Prime Minister's discussions in London January 1951"
p1169
aS'1951'
p1170
aa(lp1171
S'470996'
p1172
aS'A1838'
p1173
aS'917/2'
p1174
aS'United Nations Anglo-Argentine dispute Falkland Islands'
p1175
aS'1970'
p1176
aa(lp1177
S'471099'
p1178
aS'A6122'
p1179
aS'950'
p1180
aS'Communist Party of Australia. New South Wales - Northern suburbs (Wollongong) Branch.'
p1181
aS'1956'
p1182
aa(lp1183
S'471112'
p1184
aS'A6122'
p1185
aS'1112'
p1186
aS'Communist Party of Australia. New South Wales - Moss Vale Branch.'
p1187
aS'1956'
p1188
aa(lp1189
S'471113'
p1190
aS'A6122'
p1191
aS'1113'
p1192
aS'Communist Party of Australia. New South Wales - Herne Bay Branch.'
p1193
aS'1956'
p1194
aa(lp1195
S'471114'
p1196
aS'A6122'
p1197
aS'1114'
p1198
aS'Communist Party of Australia. New South Wales - Jannali Branch.'
p1199
aS'1956'
p1200
aa(lp1201
S'471115'
p1202
aS'A6122'
p1203
aS'1115'
p1204
aS'Communist Party of Australia. New South Wales - Malleys, South Sydney, Branch'
p1205
aS'1956'
p1206
aa(lp1207
S'476258'
p1208
aS'MP1049/5'
p1209
aS'2017/2/202'
p1210
aS'New works - funds authorisation'
p1211
aS'1946'
p1212
aa(lp1213
S'476454'
p1214
aS'A1838'
p1215
aS'100/12/9'
p1216
aS'[modified title, original item title partially exempt]'
p1217
aS'1976'
p1218
aa(lp1219
S'476477'
p1220
aS'A1838'
p1221
aS'100/12/4'
p1222
aS'SIFE [Security Intelligence Far East] Summaries [Far East] [Communist activities in Asia]'
p1223
aS'1959'
p1224
aa(lp1225
S'476485'
p1226
aS'A1838'
p1227
aS'100/12/1'
p1228
aS'Schedules - Foreign Affairs [modified title, original title partially exempt]'
p1229
aS'1957'
p1230
aa(lp1231
S'476503'
p1232
aS'A1838'
p1233
aS'100/6/1/8'
p1234
aS'Visit of representative of foreign service [imposed title, original title wholly exempt]'
p1235
aS'1956'
p1236
aa(lp1237
S'476505'
p1238
aS'A1838'
p1239
aS'100/6/1/5'
p1240
aS'Relations with foreign services [imposed title, original title wholly exempt]'
p1241
aS'1974'
p1242
aa(lp1243
S'476506'
p1244
aS'A1838'
p1245
aS'100/6/1/4'
p1246
aS'Relations with foreign services [imposed title, original title wholly exempt]'
p1247
aS'1957'
p1248
aa(lp1249
S'476508'
p1250
aS'A1838'
p1251
aS'100/6/1/2'
p1252
aS'Relations with foreign services [imposed title, original title wholly exempt]'
p1253
aS'1959'
p1254
aa(lp1255
S'476509'
p1256
aS'A1838'
p1257
aS'100/6/1/1'
p1258
aS'Relations with foreign services [imposed title, original title wholly exempt]'
p1259
aS'1975'
p1260
aa(lp1261
S'476510'
p1262
aS'A1838'
p1263
aS'100/6/1'
p1264
aS'Relations with foreign services [imposed title, original title wholly exempt]'
p1265
aS'1957'
p1266
aa(lp1267
S'476511'
p1268
aS'A1838'
p1269
aS'100/6'
p1270
aS'Relations with foreign services [imposed title, original title wholly exempt]'
p1271
aS'1989'
p1272
aa(lp1273
S'476512'
p1274
aS'A1838'
p1275
aS'100/4/13'
p1276
aS'Named country [imposed title, original title wholly exempt]'
p1277
aS'1979'
p1278
aa(lp1279
S'476513'
p1280
aS'A1838'
p1281
aS'100/4/7'
p1282
aS'Named country [imposed title, original title wholly exempt]'
p1283
aS'1956'
p1284
aa(lp1285
S'476514'
p1286
aS'A1838'
p1287
aS'100/4/6'
p1288
aS'Named country [imposed title, original title wholly exempt]'
p1289
aS'1989'
p1290
aa(lp1291
S'476515'
p1292
aS'A1838'
p1293
aS'100/4/5'
p1294
aS'Named country [imposed title, original title wholly exempt]'
p1295
aS'1988'
p1296
aa(lp1297
S'476516'
p1298
aS'A1838'
p1299
aS'100/4/4'
p1300
aS'Named country [imposed title, original title wholly exempt]'
p1301
aS'1989'
p1302
aa(lp1303
S'476517'
p1304
aS'A1838'
p1305
aS'100/4/3'
p1306
aS'Named country [imposed title, original title wholly exempt]'
p1307
aS'1988'
p1308
aa(lp1309
S'476518'
p1310
aS'A1838'
p1311
aS'100/4/2'
p1312
aS'Named country [imposed title, original title wholly exempt]'
p1313
aS'1986'
p1314
aa(lp1315
S'476522'
p1316
aS'A10872'
p1317
aS'100/3/9'
p1318
aS'Australian Secret Intelligence Service (ASIS) - Name of individual [imposed title, original title wholly exempt]'
p1319
aS'1958'
p1320
aa(lp1321
S'476523'
p1322
aS'A10872'
p1323
aS'100/3/8'
p1324
aS'Australian Secret Intelligence Service (ASIS) - Name of individual [imposed title, original title wholly exempt]'
p1325
aS'1981'
p1326
aa(lp1327
S'476528'
p1328
aS'A10872'
p1329
aS'100/3/7'
p1330
aS'Australian Secret Intelligence Service (ASIS) - Name of individual [imposed title, original title wholly exempt]'
p1331
aS'1961'
p1332
aa(lp1333
S'476532'
p1334
aS'A10872'
p1335
aS'100/3/5'
p1336
aS'Australian Secret Intelligence Service (ASIS) - Names of individuals [imposed title, original title wholly exempt]'
p1337
aS'1960'
p1338
aa(lp1339
S'476533'
p1340
aS'A10872'
p1341
aS'100/3/3'
p1342
aS'Australian Secret Intelligence Service (ASIS) - Names of individuals [imposed title, original title wholly exempt]'
p1343
aS'1957'
p1344
aa(lp1345
S'476540'
p1346
aS'A10872'
p1347
aS'100/1/6/2'
p1348
aS'Australian Secret Intelligence Service (ASIS) - Director [modified title, original title partially exempt]'
p1349
aS'1960'
p1350
aa(lp1351
S'476543'
p1352
aS'A10872'
p1353
aS'100/1/6/1'
p1354
aS'Australian Secret Intelligence Service (ASIS) - Director [modified title, original title partially exempt]'
p1355
aS'1981'
p1356
aa(lp1357
S'478212'
p1358
aS'A7452'
p1359
aS'A159'
p1360
aS"Requests for security clearances and indoctrination [modified title, original item title partially exempt - declaration by officer relinquishing appointment with PM's Department]"
p1361
aS'1974'
p1362
aa(lp1363
S'492896'
p1364
aS'A6122'
p1365
aS'1128'
p1366
aS'Communist Party of Australia. Wharf Branch Victoria'
p1367
aS'1956'
p1368
aa(lp1369
S'492902'
p1370
aS'A6122'
p1371
aS'1127'
p1372
aS'Communist Party of Australia. Eureka Youth League. Victoria'
p1373
aS'1956'
p1374
aa(lp1375
S'494598'
p1376
aS'A1209'
p1377
aS'1957/5813'
p1378
aS"SEATO Extra-ordinary Military Advisers' Meeting, Karachi, March 1956"
p1379
aS'1956'
p1380
aa(lp1381
S'505395'
p1382
aS'AWM89'
p1383
aS'B1/107'
p1384
aS"[Official History, Australia in the Korean War: Records of Robert O'Neill, Official Historian:] Source Material - Chapter 15 (Volume One), Part One [extracts and MS notes from FA, PM and Defence files]"
p1385
aS'1951'
p1386
aa(lp1387
S'509202'
p1388
aS'B3476'
p1389
aS'139'
p1390
aS'Teleradio - Ocean Island Control Demand No.140'
p1391
aS'1942'
p1392
aa(lp1393
S'509689'
p1394
aS'A6122'
p1395
aS'1196'
p1396
aS'Recording of ASIS personnel [Australian Secret Intelligence Service, Australian Security Intelligence Organisation]'
p1397
aS'1955'
p1398
aa(lp1399
S'509690'
p1400
aS'A6122'
p1401
aS'1195'
p1402
aS'ASIS Codeword procedures [Australian Secret Intelligence Service]'
p1403
aS'1956'
p1404
aa(lp1405
S'509800'
p1406
aS'B3476'
p1407
aS'163K'
p1408
aS'New Guinea - Milne Bay: Wireless Telegraph Codes'
p1409
aS'1945'
p1410
aa(lp1411
S'510427'
p1412
aS'AWM54'
p1413
aS'179/1/4 PART 2'
p1414
aS'[Chemical Warfare - General:] Deputy Director of Military Operations: Correspondence on the subject of chemical warfare [Part 2 of 2]'
p1415
aS'1943'
p1416
aa(lp1417
S'510428'
p1418
aS'AWM54'
p1419
aS'179/1/5'
p1420
aS'[Chemical Warfare - General:] Chemical Warfare Liaison Notes, No 7 - Chemical Warfare Intelligence Requirements'
p1421
aS'1941'
p1422
aa(lp1423
S'510493'
p1424
aS'A6122'
p1425
aS'1155'
p1426
aS'Communist Party of Australia - Organization, status - Tasmania'
p1427
aS'1957'
p1428
aa(lp1429
S'510813'
p1430
aS'AWM54'
p1431
aS'179/5/5 PART 12'
p1432
aS'[Chemical Warfare - Trials:] CDRE India: Notes and reports (Oct 1943) [Part 12 of 36]'
p1433
aS'1943'
p1434
aa(lp1435
S'510953'
p1436
aS'A6122'
p1437
aS'1166'
p1438
aS'Communist Party of Australia - False witness'
p1439
aS'1957'
p1440
aa(lp1441
S'517777'
p1442
aS'A4311'
p1443
aS'631/SE/13/D46'
p1444
aS'[South East Asia Treaty Organisation - Security Experts - composition of delegations to the thirteenth meeting of the committee of security experts][1p]'
p1445
aS'1960'
p1446
aa(lp1447
S'519482'
p1448
aS'A4311'
p1449
aS'626/SE/12/D24'
p1450
aS'[South East Asia Treaty Organisation - Security Experts - the nature and extent of the communist subversive and insurgent threats to the treaty area]'
p1451
aS'1959'
p1452
aa(lp1453
S'519725'
p1454
aS'A4311'
p1455
aS'626/SE/10/D3'
p1456
aS'[South East Asia Treaty Organisation - Security Experts - the inter-relations between the communist parties in the treaty area and their role in furtherance of international communist objectives]'
p1457
aS'1959'
p1458
aa(lp1459
S'519727'
p1460
aS'A4311'
p1461
aS'626/SE/10/D2'
p1462
aS'[South East Asia Treaty Organisation - Security Experts - the communist insurgent threat to the treaty area - paper by UK]'
p1463
aS'1959'
p1464
aa(lp1465
S'525318'
p1466
aS'A5799'
p1467
aS'208/1953'
p1468
aS'Antarctica'
p1469
aS'1953'
p1470
aa(lp1471
S'526829'
p1472
aS'A462'
p1473
aS'439/1/29'
p1474
aS'Far East - JIC [Joint Intelligence Committee] Singapore - Reports'
p1475
aS'1956'
p1476
aa(lp1477
S'527112'
p1478
aS'A1209'
p1479
aS'1957/4095'
p1480
aS'Joint Intelligence Bureau - liaison with United States [Government agency]. [Modified title. Original item title partially exempt.]'
p1481
aS'1954'
p1482
aa(lp1483
S'535662'
p1484
aS'A10872'
p1485
aS'100/1/12'
p1486
aS'Budget - Policy - Administration (Australian Secret Intelligence Service)'
p1487
aS'1986'
p1488
aa(lp1489
S'535666'
p1490
aS'A10872'
p1491
aS'100/1/19'
p1492
aS'Overseas Planning Committee (Australian Secret Intelligence Service)'
p1493
aS'1966'
p1494
aa(lp1495
S'535668'
p1496
aS'A1838'
p1497
aS'100/12/6'
p1498
aS'Political Intelligence and Reporting (Australian Secret Intelligence Service)'
p1499
aS'1976'
p1500
aa(lp1501
S'539767'
p1502
aS'AWM54'
p1503
aS'179/3/3 PART 1'
p1504
aS'[Chemical Warfare - Types of Agents:] Canada, Sub-Committee on Physiological Aspects of Chemical Warfare'
p1505
aS'1943'
p1506
aa(lp1507
S'539768'
p1508
aS'AWM54'
p1509
aS'179/3/3 PART 2'
p1510
aS'[Chemical Warfare - Types of Agents:] Canada, Sub-Committee on Physiological Aspects of Chemical Warfare, Aug 1943 - Report on Mustard Gas'
p1511
aS'1943'
p1512
aa(lp1513
S'539769'
p1514
aS'AWM54'
p1515
aS'179/3/3 PART 3'
p1516
aS'[Chemical Warfare - Types of Agents:] Canada, Sub-Committee on Physiological Aspects of Chemical Warfare, Oct 1943 - Report on Iron and Chloride content of the Respiratory Tract'
p1517
aS'1943'
p1518
aa(lp1519
S'539770'
p1520
aS'AWM54'
p1521
aS'179/3/3 PART 4'
p1522
aS'[Chemical Warfare - Types of Agents:] Canada, Sub-Committee on Physiological Aspects of Chemical Warfare, Nov 1943 - Report on Ammonia Gas'
p1523
aS'1943'
p1524
aa(lp1525
S'539771'
p1526
aS'AWM54'
p1527
aS'179/3/3 PART 5'
p1528
aS'[Chemical Warfare - Types of Agents:] Canada, Sub-Committee on Physiological Aspects of Chemical Warfare, Dec 1943 - Report on Treatment of Phosgene Poisoning'
p1529
aS'1943'
p1530
aa(lp1531
S'539773'
p1532
aS'AWM54'
p1533
aS'179/3/3 PART 6'
p1534
aS'[Chemical Warfare - Types of Agents:] Canada, Sub-Committee on Physiological Aspects of Chemical Warfare, Jan 1944 - Report on Blood Studies in Phosgenied Animals Plasma Liquids'
p1535
aS'1944'
p1536
aa(lp1537
S'539776'
p1538
aS'AWM54'
p1539
aS'179/3/3 PART 7'
p1540
aS'[Chemical Warfare - Types of Agents:] Canada, Sub-Committee on Physiological Aspects of Chemical Warfare - Report on the Detection of Particles of Cadmium Oxide in Sections of Mouse Lung'
p1541
aS'1944'
p1542
aa(lp1543
S'539777'
p1544
aS'AWM54'
p1545
aS'179/1/14 PART 1'
p1546
aS'[Chemical Warfare - General:] Chemical Warfare and Smoke Intelligence Bulletins, prepared by General Headquarters India, General Staff Branch, MI Directorate, Meerut [Part 1 of 7]'
p1547
aS'1945'
p1548
aa(lp1549
S'539778'
p1550
aS'AWM54'
p1551
aS'179/1/15'
p1552
aS'[Chemical Warfare - General:] Headquarters Army Service Forces, Office of the Chief of Chemical Warfare, Washington 25 DC - Chemical Warfare Intelligence Bulletins, Nos 39-56, Aug 1944 - Jun 1945'
p1553
aS'1945'
p1554
aa(lp1555
S'539795'
p1556
aS'AWM54'
p1557
aS'179/1/20 PART 16'
p1558
aS'[Chemical Warfare - General:] Australian Military Forces: Technical Notes and Staff Notes - Chemical Warfare [Part 16 of 19]'
p1559
aS'1945'
p1560
aa(lp1561
S'539800'
p1562
aS'AWM54'
p1563
aS'179/1/20 PART 18'
p1564
aS'[Chemical Warfare - General:] Australian Military Forces: Technical Notes and Staff Notes - Chemical Warfare [Part 18 of 19]'
p1565
aS'1945'
p1566
aa(lp1567
S'543561'
p1568
aS'AWM54'
p1569
aS'179/3/3 PART 12'
p1570
aS'[Chemical Warfare - Types of Agents:] Canada, Sub-Committee on Physiological Aspects of Chemical Warfare - Report on the Production of Aerosols of PGW'
p1571
aS'1944'
p1572
aa(lp1573
S'543564'
p1574
aS'AWM54'
p1575
aS'179/3/3 PART 14'
p1576
aS'[Chemical Warfare - Types of Agents:] Canada, Sub-Committee on Physiological Aspects of Chemical Warfare - Report on the Toxicity of Mustard Gas by Intravenous Injections (abbr)'
p1577
aS'1944'
p1578
aa(lp1579
S'543684'
p1580
aS'AWM54'
p1581
aS'179/5/4'
p1582
aS'[Chemical Warfare - Trials:] Report on Chemical Warfare Physiological Investigations carried out at Townsville, Queensland'
p1583
aS'1943'
p1584
aa(lp1585
S'543692'
p1586
aS'AWM54'
p1587
aS'179/5/8 PART 1'
p1588
aS'[Chemical Warfare - Trials:] Munitions Supply Laboratories. Abstract reports indexed in records of Chemical Defence Board [Part 1 of 23]'
p1589
aS'1944'
p1590
aa(lp1591
S'543700'
p1592
aS'AWM54'
p1593
aS'179/5/8 PART 2'
p1594
aS'[Chemical Warfare - Trials:] Munitions Supply Laboratories. Abstract reports indexed in records of Chemical Defence Board [Part 2 of 23]'
p1595
aS'1944'
p1596
aa(lp1597
S'543705'
p1598
aS'AWM54'
p1599
aS'179/5/8 PART 3'
p1600
aS'[Chemical Warfare - Trials:] Munitions Supply Laboratories. Abstract reports indexed in records of Chemical Defence Board [Part 3 of 23]'
p1601
aS'1944'
p1602
aa(lp1603
S'543709'
p1604
aS'AWM54'
p1605
aS'179/5/8 PART 4'
p1606
aS'[Chemical Warfare - Trials:] Munitions Supply Laboratories. Abstract reports indexed in records of Chemical Defence Board [Part 4 of 23]'
p1607
aS'1944'
p1608
aa(lp1609
S'543712'
p1610
aS'AWM54'
p1611
aS'179/5/8 PART 5'
p1612
aS'[Chemical Warfare - Trials:] Munitions Supply Laboratories. Abstract reports indexed in records of Chemical Defence Board [Part 5 of 23]'
p1613
aS'1944'
p1614
aa(lp1615
S'543715'
p1616
aS'AWM54'
p1617
aS'179/5/8 PART 6'
p1618
aS'[Chemical Warfare - Trials:] Munitions Supply Laboratories. Abstract reports indexed in records of Chemical Defence Board [Part 6 of 23]'
p1619
aS'1944'
p1620
aa(lp1621
S'543718'
p1622
aS'AWM54'
p1623
aS'179/5/8 PART 7'
p1624
aS'[Chemical Warfare - Trials:] Munitions Supply Laboratories. Abstract reports indexed in records of Chemical Defence Board [Part 7 of 23]'
p1625
aS'1944'
p1626
aa(lp1627
S'543723'
p1628
aS'AWM54'
p1629
aS'179/5/8 PART 8'
p1630
aS'[Chemical Warfare - Trials:] Munitions Supply Laboratories. Abstract reports indexed in records of Chemical Defence Board [Part 8 of 23]'
p1631
aS'1944'
p1632
aa(lp1633
S'543725'
p1634
aS'AWM54'
p1635
aS'179/5/8 PART 9'
p1636
aS'[Chemical Warfare - Trials:] Munitions Supply Laboratories. Abstract reports indexed in records of Chemical Defence Board [Part 9 of 23]'
p1637
aS'1944'
p1638
aa(lp1639
S'543728'
p1640
aS'AWM54'
p1641
aS'179/5/8 PART 10'
p1642
aS'[Chemical Warfare - Trials:] Munitions Supply Laboratories. Abstract reports indexed in records of Chemical Defence Board [Part 10 of 23]'
p1643
aS'1944'
p1644
aa(lp1645
S'543731'
p1646
aS'AWM54'
p1647
aS'179/5/8 PART 11'
p1648
aS'[Chemical Warfare - Trials:] Munitions Supply Laboratories. Abstract reports indexed in records of Chemical Defence Board [Part 11 of 23]'
p1649
aS'1944'
p1650
aa(lp1651
S'543733'
p1652
aS'AWM54'
p1653
aS'179/5/8 PART 12'
p1654
aS'[Chemical Warfare - Trials:] Munitions Supply Laboratories. Abstract reports indexed in records of Chemical Defence Board [Part 12 of 23]'
p1655
aS'1945'
p1656
aa(lp1657
S'543736'
p1658
aS'AWM54'
p1659
aS'179/5/8 PART 13'
p1660
aS'[Chemical Warfare - Trials:] Munitions Supply Laboratories. Abstract reports indexed in records of Chemical Defence Board [Part 13 of 23]'
p1661
aS'1945'
p1662
aa(lp1663
S'543738'
p1664
aS'AWM54'
p1665
aS'179/5/8 PART 14'
p1666
aS'[Chemical Warfare - Trials:] Munitions Supply Laboratories. Abstract reports indexed in records of Chemical Defence Board [Part 14 of 23]'
p1667
aS'1945'
p1668
aa(lp1669
S'543740'
p1670
aS'AWM54'
p1671
aS'179/5/8 PART 15'
p1672
aS'[Chemical Warfare - Trials:] Munitions Supply Laboratories. Abstract reports indexed in records of Chemical Defence Board [Part 15 of 23]'
p1673
aS'1945'
p1674
aa(lp1675
S'543741'
p1676
aS'AWM54'
p1677
aS'179/5/8 PART 16'
p1678
aS'[Chemical Warfare - Trials:] Munitions Supply Laboratories. Abstract reports indexed in records of Chemical Defence Board [Part 16 of 23]'
p1679
aS'1945'
p1680
aa(lp1681
S'543743'
p1682
aS'AWM54'
p1683
aS'179/5/8 PART 17'
p1684
aS'[Chemical Warfare - Trials:] Munitions Supply Laboratories. Abstract reports indexed in records of Chemical Defence Board [Part 17 of 23]'
p1685
aS'1945'
p1686
aa(lp1687
S'543744'
p1688
aS'AWM54'
p1689
aS'179/5/8 PART 18'
p1690
aS'[Chemical Warfare - Trials:] Munitions Supply Laboratories. Abstract reports indexed in records of Chemical Defence Board [Part 18 of 23]'
p1691
aS'1945'
p1692
aa(lp1693
S'543745'
p1694
aS'AWM54'
p1695
aS'179/5/8 PART 19'
p1696
aS'[Chemical Warfare - Trials:] Munitions Supply Laboratories. Abstract reports indexed in records of Chemical Defence Board [Part 19 of 23]'
p1697
aS'1945'
p1698
aa(lp1699
S'543747'
p1700
aS'AWM54'
p1701
aS'179/5/8 PART 20'
p1702
aS'[Chemical Warfare - Trials:] Munitions Supply Laboratories. Abstract reports indexed in records of Chemical Defence Board [Part 20 of 23]'
p1703
aS'1945'
p1704
aa(lp1705
S'543755'
p1706
aS'AWM54'
p1707
aS'179/5/17 PART 4'
p1708
aS'[Chemical Warfare - Trials:] Far Eastern Technical Unit, Research Section, Pacific Warfare Board - Reports No 4, 5 and 6'
p1709
aS'1945'
p1710
aa(lp1711
S'543766'
p1712
aS'AWM54'
p1713
aS'179/5/22'
p1714
aS'[Chemical Warfare - Trials:] Special reports by the technical staff of the Chemical Warfare Service Mobile Unit, Brooksville, Florida'
p1715
aS'1945'
p1716
aa(lp1717
S'546463'
p1718
aS'A1838'
p1719
aS'919/13/4 PART 55'
p1720
aS'France - Disarmament - Nuclear Weapons Testing'
p1721
aS'1973'
p1722
aa(lp1723
S'548208'
p1724
aS'A1838'
p1725
aS'3107/3/1/4'
p1726
aS'China - Communist Party - Evolution of Central Organisations of Chinese Communist Party 1921-58'
p1727
aS'1961'
p1728
aa(lp1729
S'548543'
p1730
aS'A1838'
p1731
aS'3107/38/2 PART 2'
p1732
aS'China - Relations with Australia - Chinese Representation in Australia'
p1733
aS'1975'
p1734
aa(lp1735
S'549329'
p1736
aS'A1838'
p1737
aS'720/5/7 PART 3'
p1738
aS'Atomic Energy - Australia Relations with India'
p1739
aS'1975'
p1740
aa(lp1741
S'549789'
p1742
aS'A1838'
p1743
aS'3024/2/1 PART 28'
p1744
aS'Singapore - Political - General'
p1745
aS'1971'
p1746
aa(lp1747
S'549907'
p1748
aS'A1838'
p1749
aS'3024/12/1 PART 6'
p1750
aS'Singapore - Defence - Armed Forces'
p1751
aS'1975'
p1752
aa(lp1753
S'550008'
p1754
aS'A1838'
p1755
aS'3027/2/1/4 PART 1'
p1756
aS'Malaysia - Political - General - Political Reports - Language - Education Issues'
p1757
aS'1974'
p1758
aa(lp1759
S'550235'
p1760
aS'A1838'
p1761
aS'3032/2/9 PART 6'
p1762
aS'Sarawak - Internal Security'
p1763
aS'1971'
p1764
aa(lp1765
S'550237'
p1766
aS'A1838'
p1767
aS'3032/2/9 PART 8'
p1768
aS'Sarawak - Internal Security'
p1769
aS'1972'
p1770
aa(lp1771
S'550240'
p1772
aS'A1838'
p1773
aS'3032/2/9 PART 11'
p1774
aS'Sarawak - Internal Security'
p1775
aS'1972'
p1776
aa(lp1777
S'550704'
p1778
aS'A1838'
p1779
aS'3034/11/161 PART 17'
p1780
aS'Indonesia - Relations with USA'
p1781
aS'1975'
p1782
aa(lp1783
S'550706'
p1784
aS'A1838'
p1785
aS'3034/12/1 PART 10'
p1786
aS'Indonesia - Armed Forces & Defence Interests [401pp]'
p1787
aS'1969'
p1788
aa(lp1789
S'551869'
p1790
aS'A1838'
p1791
aS'752/1/23 PART 10'
p1792
aS'Indonesia - Australia - Indonesia Continental Shelf Boundaries - (Agreement) Negotiations'
p1793
aS'1972'
p1794
aa(lp1795
S'551873'
p1796
aS'A1838'
p1797
aS'752/1/23 PART 11'
p1798
aS'Indonesia - Australia - Indonesia Continental Shelf Boundaries - (Agreement) Negotiations'
p1799
aS'1972'
p1800
aa(lp1801
S'551875'
p1802
aS'A1838'
p1803
aS'752/1/23 PART 12'
p1804
aS'Indonesia - Australia - Indonesia Continental Shelf Boundaries - (Agreement) Negotiations'
p1805
aS'1972'
p1806
aa(lp1807
S'551877'
p1808
aS'A1838'
p1809
aS'752/1/23 PART 13'
p1810
aS'Indonesia - Australia - Indonesia Continental Shelf Boundaries (Agreement) Negotiations'
p1811
aS'1972'
p1812
aa(lp1813
S'551880'
p1814
aS'A1838'
p1815
aS'752/1/23 PART 15'
p1816
aS'Indonesia - Australia - Indonesia Continental Shelf Boundaries - Agreement Negotiations'
p1817
aS'1972'
p1818
aa(lp1819
S'552376'
p1820
aS'A1838'
p1821
aS'193/12/2'
p1822
aS'Iran - Defence - Army'
p1823
aS'1962'
p1824
aa(lp1825
S'553310'
p1826
aS'A1838'
p1827
aS'1495/3/2/2 PART 4'
p1828
aS'Antarctica - Australian interests - Legal position and administration - Australian Antarctic Territory'
p1829
aS'1968'
p1830
aa(lp1831
S'553313'
p1832
aS'A1838'
p1833
aS'1495/3/2/3 PART 1'
p1834
aS'Antarctic - Heard Island'
p1835
aS'1949'
p1836
aa(lp1837
S'553542'
p1838
aS'A1838'
p1839
aS'563/10/8'
p1840
aS'Communism - SEATO Council representations'
p1841
aS'1957'
p1842
aa(lp1843
S'553544'
p1844
aS'A1838'
p1845
aS'563/10/10'
p1846
aS'Communism - SEATO committee on information - cultural - educational & labour activities'
p1847
aS'1958'
p1848
aa(lp1849
S'553548'
p1850
aS'A1838'
p1851
aS'563/10/10/10 PART 1'
p1852
aS'SEATO - trends and highlights in Communist propaganda'
p1853
aS'1957'
p1854
aa(lp1855
S'553549'
p1856
aS'A1838'
p1857
aS'563/10/10/10 PART 2'
p1858
aS'SEATO - trends and highlights in Communist propaganda'
p1859
aS'1957'
p1860
aa(lp1861
S'553550'
p1862
aS'A1838'
p1863
aS'563/10/10/10 PART 3'
p1864
aS'SEATO - trends and highlights in Communist propaganda'
p1865
aS'1958'
p1866
aa(lp1867
S'553553'
p1868
aS'A1838'
p1869
aS'563/10/12'
p1870
aS'Communism - SEATO - economic aspects'
p1871
aS'1957'
p1872
aa(lp1873
S'553554'
p1874
aS'A1838'
p1875
aS'563/10/13 PART 1'
p1876
aS'Communism - SEATO - summaries'
p1877
aS'1957'
p1878
aa(lp1879
S'553555'
p1880
aS'A1838'
p1881
aS'563/10/13 PART 2'
p1882
aS'Communism - SEATO - summaries'
p1883
aS'1958'
p1884
aa(lp1885
S'553941'
p1886
aS'A1838'
p1887
aS'851/12/23'
p1888
aS'Joint Intelligence Committee (London) - Weekly Review of Current Intelligence on the Middle East.'
p1889
aS'1957'
p1890
aa(lp1891
S'555389'
p1892
aS'A1838'
p1893
aS'277/2 PART 13'
p1894
aS'Australian Pacific interest - General policy including South Pacific Study Group'
p1895
aS'1973'
p1896
aa(lp1897
S'557903'
p1898
aS'A1838'
p1899
aS'3024/1/1 PART 3'
p1900
aS'Singapore - Internal - General (race, geography, etc)'
p1901
aS'1974'
p1902
aa(lp1903
S'567488'
p1904
aS'A1838'
p1905
aS'563/2/16 PART 5'
p1906
aS'Radio Australia - Technical - Foreign broadcast information - Service - Washington'
p1907
aS'1960'
p1908
aa(lp1909
S'567493'
p1910
aS'A1838'
p1911
aS'563/2/16 PART 7'
p1912
aS'Radio Australia - Technical - Foreign broadcast information service - Washington'
p1913
aS'1960'
p1914
aa(lp1915
S'567497'
p1916
aS'A1838'
p1917
aS'563/2/16 PART 8'
p1918
aS'Radio Australia - Technical - Foreign broadcast information service - Washington'
p1919
aS'1961'
p1920
aa(lp1921
S'567502'
p1922
aS'A1838'
p1923
aS'563/2/16 PART 10'
p1924
aS'Radio Australia - Technical [portion of title exempt]'
p1925
aS'1962'
p1926
aa(lp1927
S'577042'
p1928
aS'A1838'
p1929
aS'1531/76 PART 2'
p1930
aS'Immigration - To and from South Africa'
p1931
aS'1972'
p1932
aa(lp1933
S'581728'
p1934
aS'A816'
p1935
aS'11/301/1081'
p1936
aS'ANZUS Council - Proposed meeting, November 1956, in Washington'
p1937
aS'1957'
p1938
aa(lp1939
S'583103'
p1940
aS'A1838'
p1941
aS'3026/2/9/2 PART 1'
p1942
aS'Malaya - internal security'
p1943
aS'1962'
p1944
aa(lp1945
S'583173'
p1946
aS'A1838'
p1947
aS'3027/2/1 PART 25'
p1948
aS'Malaysia - Political - General [3cm]'
p1949
aS'1966'
p1950
aa(lp1951
S'583177'
p1952
aS'A1838'
p1953
aS'3027/2/1 PART 27'
p1954
aS'Malaysia - Political - General [396pp]'
p1955
aS'1967'
p1956
aa(lp1957
S'583204'
p1958
aS'A1838'
p1959
aS'3027/2/1 PART 39'
p1960
aS'Malaysia - Political - General'
p1961
aS'1969'
p1962
aa(lp1963
S'583205'
p1964
aS'A1838'
p1965
aS'3027/2/1 PART 40'
p1966
aS'Malaysia - Political - General'
p1967
aS'1969'
p1968
aa(lp1969
S'583260'
p1970
aS'A1838'
p1971
aS'3027/2/9/2 PART 2'
p1972
aS'Malaysia - Internal security'
p1973
aS'1966'
p1974
aa(lp1975
S'583282'
p1976
aS'A1838'
p1977
aS'3027/10/1 PART 7'
p1978
aS'Malaysia - Political Relations with Australia'
p1979
aS'1969'
p1980
aa(lp1981
S'583683'
p1982
aS'A1838'
p1983
aS'3034/7/1/1 PART 1'
p1984
aS'Indonesia - External relations - Talks on Indonesia [341 pp]'
p1985
aS'1963'
p1986
aa(lp1987
S'585778'
p1988
aS'A1838'
p1989
aS'563/10/3 PART 4'
p1990
aS'Communism - SEATO - Information Committee'
p1991
aS'1956'
p1992
aa(lp1993
S'585779'
p1994
aS'A1838'
p1995
aS'563/10/3 PART 5'
p1996
aS'Communism - SEATO - Information Committee'
p1997
aS'1956'
p1998
aa(lp1999
S'586400'
p2000
aS'A1838'
p2001
aS'3004/12/16 PART 1'
p2002
aS'South East Asia - Joint Intelligence Committee - [portion exempt] - review of Current Intelligence'
p2003
aS'1957'
p2004
aa(lp2005
S'586874'
p2006
aS'A1838'
p2007
aS'154/11/87 PART 1'
p2008
aS'Tanganyika - Relations with China'
p2009
aS'1965'
p2010
aa(lp2011
S'587096'
p2012
aS'A1838'
p2013
aS'3014/2/1 PART 39'
p2014
aS'South Vietnam - Political general'
p2015
aS'1966'
p2016
aa(lp2017
S'587816'
p2018
aS'A1838'
p2019
aS'69/1/1/16/14'
p2020
aS'USSR Communist Inter Front Organisations'
p2021
aS'1969'
p2022
aa(lp2023
S'635374'
p2024
aS'A1838'
p2025
aS'TS519/3 PART 1'
p2026
aS'Formosa - External relations - General'
p2027
aS'1956'
p2028
aa(lp2029
S'635553'
p2030
aS'A1209'
p2031
aS'1957/4096'
p2032
aS'JIB [Joint Intelligence Bureau] - liaison with New Zealand'
p2033
aS'1952'
p2034
aa(lp2035
S'636650'
p2036
aS'A6122'
p2037
aS'1018'
p2038
aS'Communist Party of Australia, Western Australia- schools'
p2039
aS'1956'
p2040
aa(lp2041
S'636786'
p2042
aS'A5954'
p2043
aS'1437/2'
p2044
aS'SEATO Staff planners 3rd meeting, Singapore 1956. SEATO position paper on the subject of allocation, control and protection of allied shipping (Agenda Item F)'
p2045
aS'1956'
p2046
aa(lp2047
S'637727'
p2048
aS'A5954'
p2049
aS'1414/6'
p2050
aS'Minister of Defence - Republic of Indonesia.'
p2051
aS'1955'
p2052
aa(lp2053
S'640199'
p2054
aS'A6122'
p2055
aS'865'
p2056
aS'Communist Party of Australia - Western Australia, Geraldton branch.'
p2057
aS'1956'
p2058
aa(lp2059
S'640200'
p2060
aS'A6122'
p2061
aS'864'
p2062
aS'Communist Party of Australia - Western Australia, Freemantle branch.'
p2063
aS'1956'
p2064
aa(lp2065
S'640203'
p2066
aS'A6122'
p2067
aS'860'
p2068
aS'Communist Party of Australia - Western Australia, Swan branch.'
p2069
aS'1956'
p2070
aa(lp2071
S'640204'
p2072
aS'A6122'
p2073
aS'856'
p2074
aS'Communist Party of Australia - Western Australia, Waterfront Tasmania.'
p2075
aS'1956'
p2076
aa(lp2077
S'640357'
p2078
aS'A6122'
p2079
aS'1095'
p2080
aS'Communist Party of Australia - History of - Volume 1'
p2081
aS'1956'
p2082
aa(lp2083
S'641630'
p2084
aS'A5954'
p2085
aS'1714/11'
p2086
aS'Commands and defended ports overseas. "Period before reprovisioning" in time of war'
p2087
aS'1938'
p2088
aa(lp2089
S'642051'
p2090
aS'A5954'
p2091
aS'1727/17'
p2092
aS'Gibraltar as a link in Imperial Communications'
p2093
aS'1937'
p2094
aa(lp2095
S'642052'
p2096
aS'A5954'
p2097
aS'1727/18'
p2098
aS'Gibraltar as a link in Imperial Communications. March - July 1937.'
p2099
aS'1937'
p2100
aa(lp2101
S'642054'
p2102
aS'A5954'
p2103
aS'1727/20'
p2104
aS'Gibraltar as a link in Imperial Communications - Problem of Establishing an Air Base, Nov 1936'
p2105
aS'1936'
p2106
aa(lp2107
S'642055'
p2108
aS'A5954'
p2109
aS'1727/21'
p2110
aS'Gibraltar as a link in Imperial Communications - Reclamation of Land from the Sea for the purpose of a Military Aerodrome, Oct 1936'
p2111
aS'1936'
p2112
aa(lp2113
S'642056'
p2114
aS'A5954'
p2115
aS'1727/22'
p2116
aS'Gibraltar as a link in Imperial Communications - The problem of Establishing an Air Base, Oct 1936'
p2117
aS'1936'
p2118
aa(lp2119
S'642057'
p2120
aS'A5954'
p2121
aS'1727/23'
p2122
aS'Gibraltar as a link in Imperial Communications - The problem of Establishing an Air Base, Jul 1936'
p2123
aS'1936'
p2124
aa(lp2125
S'650693'
p2126
aS'A1838'
p2127
aS'TS3004/12/16/1'
p2128
aS'Joint Intelligence Committee Far East (JIC FE) - Quarterly reviews.'
p2129
aS'1958'
p2130
aa(lp2131
S'651248'
p2132
aS'A6712'
p2133
aS'8'
p2134
aS'Meeting of Commonwealth prime ministers, January - February 1955. Minutes of meetings and memoranda. PMM (55) 1st - 9th Meetings and PMM (55) 1st - 6th Memoranda [66pp]'
p2135
aS'1955'
p2136
aa(lp2137
S'651662'
p2138
aS'A816'
p2139
aS'25/301/554'
p2140
aS'[Intelligence] [modified title, original item title partially exempt] Reports'
p2141
aS'1956'
p2142
aa(lp2143
S'652610'
p2144
aS'A816'
p2145
aS'14/301/692'
p2146
aS'Anglo-Amercian strategy in the Far East'
p2147
aS'1956'
p2148
aa(lp2149
S'652619'
p2150
aS'A816'
p2151
aS'11/301/778'
p2152
aS'Meeting of Defence Ministers, London, June, 1951. Correspondence relating to Cabinet agenda'
p2153
aS'1951'
p2154
aa(lp2155
S'652751'
p2156
aS'A2031'
p2157
aS'447/1951'
p2158
aS'Target Selection Committee - Far East'
p2159
aS'1951'
p2160
aa(lp2161
S'654085'
p2162
aS'A816'
p2163
aS'14/301/530'
p2164
aS"The Defence Department's Programme 1952-53"
p2165
aS'1953'
p2166
aa(lp2167
S'658734'
p2168
aS'A2031'
p2169
aS'61/1953'
p2170
aS'Probable form and scale of attack against Malaya - Agreement of joint intelligence assessments'
p2171
aS'1953'
p2172
aa(lp2173
S'658745'
p2174
aS'A2031'
p2175
aS'300/1952'
p2176
aS'Tripartite military talks on South East Asia - Intelligence talks'
p2177
aS'1952'
p2178
aa(lp2179
S'660780'
p2180
aS'A518'
p2181
aS'IA16/2/1'
p2182
aS'Information about Australia and the territories. Requests by US Service Attache.'
p2183
aS'1955'
p2184
aa(lp2185
S'661212'
p2186
aS'A5799'
p2187
aS'177/1950'
p2188
aS'Cypher Production Organisation'
p2189
aS'1950'
p2190
aa(lp2191
S'663672'
p2192
aS'AWM54'
p2193
aS'179/5/7 PART 1'
p2194
aS'[Chemical Warfare - Trials:] Reports from Australian Field Experimental Station, Proserpine, Queensland (Feb 1945) [Part 1 of 10]'
p2195
aS'1945'
p2196
aa(lp2197
S'663677'
p2198
aS'AWM54'
p2199
aS'179/5/7 PART 2'
p2200
aS'[Chemical Warfare - Trials:] Reports from Australian Field Experimental Station, Proserpine, Queensland (Mar 1945) [Part 2 of 10]'
p2201
aS'1945'
p2202
aa(lp2203
S'664444'
p2204
aS'A4529'
p2205
aS'10/1/2/1954'
p2206
aS'Indo-China: Information for JIB [Joint Intelligence Bureau]'
p2207
aS'1954'
p2208
aa(lp2209
S'664445'
p2210
aS'A4529'
p2211
aS'10/1/2/1955 PART 1'
p2212
aS'Indo-China: Information for JIB [Joint Intelligence Bureau]'
p2213
aS'1955'
p2214
aa(lp2215
S'664446'
p2216
aS'A4529'
p2217
aS'10/1/2/1955 PART 2'
p2218
aS'Indo-China: Information for JIB [Joint Intelligence Bureau]'
p2219
aS'1956'
p2220
aa(lp2221
S'666565'
p2222
aS'A2031'
p2223
aS'36/1952'
p2224
aS'Deception Planning'
p2225
aS'1952'
p2226
aa(lp2227
S'667099'
p2228
aS'A6122'
p2229
aS'1203'
p2230
aS'Indonesian Malay Association - Broome Western Australia'
p2231
aS'1949'
p2232
aa(lp2233
S'669524'
p2234
aS'AWM54'
p2235
aS'179/5/5 PART 1'
p2236
aS'[Chemical Warfare - Trials:] CDRE India: Notes and reports (Jul 1942) [Part 1 of 36]'
p2237
aS'1942'
p2238
aa(lp2239
S'675420'
p2240
aS'A5954'
p2241
aS'2356/4'
p2242
aS'[Portion of title exempt] Visit - Programme and Cover Plan'
p2243
aS'1952'
p2244
aa(lp2245
S'675427'
p2246
aS'A5954'
p2247
aS'2356/10'
p2248
aS'Proposals [Portion of title exempt] in Joint Intelligence Bureau (Melbourne)'
p2249
aS'1953'
p2250
aa(lp2251
S'675437'
p2252
aS'A5954'
p2253
aS'2356/13'
p2254
aS'Joint Intelligence Bureau (Melbourne) Co-Operation with Canada'
p2255
aS'1954'
p2256
aa(lp2257
S'676185'
p2258
aS'A6119'
p2259
aS'457'
p2260
aS'Colin SIMPSON - Volume 1'
p2261
aS'1971'
p2262
aa(lp2263
S'676189'
p2264
aS'A6119'
p2265
aS'454'
p2266
aS'HOLBURN, Marjorie (nee PIZER)'
p2267
aS'1962'
p2268
aa(lp2269
S'677992'
p2270
aS'A816'
p2271
aS'25/301/502'
p2272
aS'Vladimir ZOUHAR [ZOUCHER ZOUCHAR]'
p2273
aS'1951'
p2274
aa(lp2275
S'678568'
p2276
aS'A6119'
p2277
aS'477'
p2278
aS'Clement Byrne CHRISTESEN - Part 5'
p2279
aS'1960'
p2280
aa(lp2281
S'678592'
p2282
aS'A6119'
p2283
aS'464'
p2284
aS'JOHNSTON, Elliott Frank - Part 2'
p2285
aS'1957'
p2286
aa(lp2287
S'678593'
p2288
aS'A6119'
p2289
aS'463'
p2290
aS'JOHNSTON, Elliott Frank - Part 1'
p2291
aS'1953'
p2292
aa(lp2293
S'682090'
p2294
aS'A2031'
p2295
aS'457/1946'
p2296
aS'457/1946 : Joint Intelligence Bureau - Visit to Australia by Major-General STRONG : Agendum Number - 68/1946 and Supplementary 7 : Date of meeting - Tuesday 19 November 1946'
p2297
aS'1946'
p2298
aa(lp2299
S'682101'
p2300
aS'A2031'
p2301
aS'243/1947'
p2302
aS'243/1947 : Exchange of secret information between Australia and the United States : Agendum Number 17/1947 : Date of meeting - 22 July 1947'
p2303
aS'1947'
p2304
aa(lp2305
S'682253'
p2306
aS'A2031'
p2307
aS'14/1955'
p2308
aS'Exchange of Joint Intelligence Committee papers [modified title, original item title partially exempt]'
p2309
aS'1955'
p2310
aa(lp2311
S'682655'
p2312
aS'A6119'
p2313
aS'450'
p2314
aS'George Ernest Archer RUSSELL'
p2315
aS'1960'
p2316
aa(lp2317
S'682661'
p2318
aS'A2031'
p2319
aS'45/1956'
p2320
aS'Australia, New Zealand and United States Staff Planners Meeting, Pearl Harbour, March 1956 [Remainder of title exempt]'
p2321
aS'1956'
p2322
aa(lp2323
S'682668'
p2324
aS'A2031'
p2325
aS'125/1955'
p2326
aS'Exchange of information for SEAMIL purposes'
p2327
aS'1955'
p2328
aa(lp2329
S'682669'
p2330
aS'A2031'
p2331
aS'135/1955'
p2332
aS'Quinpart Intelligence meetings'
p2333
aS'1955'
p2334
aa(lp2335
S'682835'
p2336
aS'A1945'
p2337
aS'16/3/2'
p2338
aS'ANZUS - Council Meeting in Washington, 1958, October'
p2339
aS'1958'
p2340
aa(lp2341
S'688587'
p2342
aS'A816'
p2343
aS'25/301/609'
p2344
aS'Probable communist courses of action in Asia up to 1960.'
p2345
aS'1956'
p2346
aa(lp2347
S'690382'
p2348
aS'AWM54'
p2349
aS'179/5/10 PART 3'
p2350
aS'[Chemical Warfare - Trials:] Headquarters, San Jose, Project Division. Reports by technical staff, San Jose Project 1945-1946, Bi Weekly progress reports 1945, San Jose Project reports, Field Tests, 1944 [Part 3 of 13]'
p2351
aS'1946'
p2352
aa(lp2353
S'690384'
p2354
aS'AWM54'
p2355
aS'179/5/10 PART 4'
p2356
aS'[Chemical Warfare - Trials:] Headquarters, San Jose, Project Division. Reports by technical staff, San Jose Project 1945-1946, Bi Weekly progress reports 1945, San Jose Project reports, Field Tests, 1944 [Part 4 of 13]'
p2357
aS'1946'
p2358
aa(lp2359
S'690388'
p2360
aS'AWM54'
p2361
aS'179/5/10 PART 6'
p2362
aS'[Chemical Warfare - Trials:] Headquarters, San Jose, Project Division. Reports by technical staff, San Jose Project 1945-1946, Bi Weekly progress reports 1945, San Jose Project reports, Field Tests, 1944 [Part 6 of 13]'
p2363
aS'1946'
p2364
aa(lp2365
S'690393'
p2366
aS'AWM54'
p2367
aS'179/5/10 PART 10'
p2368
aS'[Chemical Warfare - Trials:] Headquarters, San Jose, Project Division. Reports by technical staff, San Jose Project 1945-1946, Bi Weekly progress reports 1945, San Jose Project reports, Field Tests, 1944 [Part 10 of 13]'
p2369
aS'1946'
p2370
aa(lp2371
S'690424'
p2372
aS'AWM54'
p2373
aS'179/5/14 PART 1'
p2374
aS'[Chemical Warfare - Trials:] Dugway Proving Grounds. Mobile Chemical Warfare Section Unit, 1945-1946'
p2375
aS'1946'
p2376
aa(lp2377
S'690427'
p2378
aS'AWM54'
p2379
aS'179/5/14 PART 3'
p2380
aS'[Chemical Warfare - Trials:] Dugway Proving Grounds. Mobile Chemical Warfare Section Unit, 1945-1946'
p2381
aS'1946'
p2382
aa(lp2383
S'690431'
p2384
aS'AWM54'
p2385
aS'179/5/14 PART 5'
p2386
aS'[Chemical Warfare - Trials:] Dugway Proving Grounds. Mobile Chemical Warfare Section Unit, 1945-1946'
p2387
aS'1946'
p2388
aa(lp2389
S'690434'
p2390
aS'AWM54'
p2391
aS'179/5/14 PART 7'
p2392
aS'[Chemical Warfare - Trials:] Dugway Proving Grounds. Mobile Chemical Warfare Section Unit, 1945-1946'
p2393
aS'1946'
p2394
aa(lp2395
S'690436'
p2396
aS'AWM54'
p2397
aS'179/5/14 PART 8'
p2398
aS'[Chemical Warfare - Trials:] Dugway Proving Grounds. Mobile Chemical Warfare Section Unit, 1945-1946'
p2399
aS'1946'
p2400
aa(lp2401
S'690438'
p2402
aS'AWM54'
p2403
aS'179/5/14 PART 9'
p2404
aS'[Chemical Warfare - Trials:] Dugway Proving Grounds. Mobile Chemical Warfare Section Unit, 1945-1946'
p2405
aS'1946'
p2406
aa(lp2407
S'690439'
p2408
aS'AWM54'
p2409
aS'179/5/14 PART 10'
p2410
aS'[Chemical Warfare - Trials:] Dugway Proving Grounds. Mobile Chemical Warfare Section Unit, 1945-1946'
p2411
aS'1946'
p2412
aa(lp2413
S'690441'
p2414
aS'AWM54'
p2415
aS'179/5/14 PART 11'
p2416
aS'[Chemical Warfare - Trials:] Dugway Proving Grounds. Mobile Chemical Warfare Section Unit, 1945-1946'
p2417
aS'1946'
p2418
aa(lp2419
S'690448'
p2420
aS'AWM54'
p2421
aS'179/5/14 PART 12A'
p2422
aS'[Chemical Warfare - Trials:] Dugway Proving Grounds. Mobile Chemical Warfare Section Unit, 1945-1946'
p2423
aS'1946'
p2424
aa(lp2425
S'690462'
p2426
aS'AWM54'
p2427
aS'179/5/14 PART 20'
p2428
aS'[Chemical Warfare - Trials:] Dugway Proving Grounds. Mobile Chemical Warfare Section Unit, 1945-1946'
p2429
aS'1946'
p2430
aa(lp2431
S'690464'
p2432
aS'AWM54'
p2433
aS'179/5/14 PART 21'
p2434
aS'[Chemical Warfare - Trials:] Dugway Proving Grounds. Mobile Chemical Warfare Section Unit, 1945-1946'
p2435
aS'1946'
p2436
aa(lp2437
S'690468'
p2438
aS'AWM54'
p2439
aS'179/5/14 PART 24'
p2440
aS'[Chemical Warfare - Trials:] Dugway Proving Grounds. Mobile Chemical Warfare Section Unit, 1945-1946'
p2441
aS'1946'
p2442
aa(lp2443
S'690470'
p2444
aS'AWM54'
p2445
aS'179/5/14 PART 25'
p2446
aS'[Chemical Warfare - Trials:] Dugway Proving Grounds. Mobile Chemical Warfare Section Unit, 1945-1946'
p2447
aS'1946'
p2448
aa(lp2449
S'692188'
p2450
aS'A816'
p2451
aS'25/301/588'
p2452
aS'Bilateral information exchange with USA'
p2453
aS'1960'
p2454
aa(lp2455
S'692193'
p2456
aS'A816'
p2457
aS'25/301/555'
p2458
aS'United States Intelligence - Reports by JIB [Joint Intelligence Board] (Melbourne) Representative - Washington'
p2459
aS'1954'
p2460
aa(lp2461
S'698422'
p2462
aS'A5954'
p2463
aS'2366/10'
p2464
aS'Area of responsibility of Joint Intelligence Bureau (Melbourne)'
p2465
aS'1953'
p2466
aa(lp2467
S'699024'
p2468
aS'A1209'
p2469
aS'1960/855'
p2470
aS'Indicators of Communist preparations for war in SEA.'
p2471
aS'1961'
p2472
aa(lp2473
S'699029'
p2474
aS'A1209'
p2475
aS'1960/882'
p2476
aS'SEATO 12th Military Advisers Conference, Washington, May 1960. Report.'
p2477
aS'1960'
p2478
aa(lp2479
S'699032'
p2480
aS'A1209'
p2481
aS'1960/802'
p2482
aS'SEATO - Report of the Communications Committee. Fourth meeting, June, 1960.'
p2483
aS'1960'
p2484
aa(lp2485
S'699046'
p2486
aS'A1209'
p2487
aS'1959/460'
p2488
aS'SEATO - Intelligence Ad Hoc Committee meeting, Bangkok, December 1958 report.'
p2489
aS'1959'
p2490
aa(lp2491
S'699751'
p2492
aS'A5799'
p2493
aS'234/1952'
p2494
aS"Five Power Military Conference on South East Asia - UK papers on 'possible deterents to further Chinese aggression in South East Asia' and 'possible operations against Hainan'"
p2495
aS'1952'
p2496
aa(lp2497
S'701652'
p2498
aS'A5954'
p2499
aS'1557/13'
p2500
aS'A summary of defence activities May, 1950. Copy No. 2'
p2501
aS'1950'
p2502
aa(lp2503
S'703111'
p2504
aS'A1209'
p2505
aS'1960/285'
p2506
aS'Brief for Chief of General Staff for discussions with NZ Chiefs of Staff'
p2507
aS'1960'
p2508
aa(lp2509
S'3911900'
p2510
aS'A6364'
p2511
aS'WH1963/06'
p2512
aS'Washington cables inwards chronological, numbers 1551 to 1899,  14 June to 19 July 1963'
p2513
aS'1963'
p2514
aa(lp2515
S'4025268'
p2516
aS'A6126'
p2517
aS'1131'
p2518
aS'Kevin Raymond COX'
p2519
aS'1985'
p2520
aa(lp2521
S'4025625'
p2522
aS'A6122'
p2523
aS'2052'
p2524
aS'Communist Party of Australia - New South Wales - Eveleigh Loco Branch'
p2525
aS'1970'
p2526
aa(lp2527
S'4025998'
p2528
aS'A6119'
p2529
aS'2954'
p2530
aS'Kathleen Mary RICHARDS - Miscellaneous papers'
p2531
aS'1969'
p2532
aa(lp2533
S'4037961'
p2534
aS'A4311'
p2535
aS'686/11'
p2536
aS'[Research Methods Conference, Melbourne,  November 1958]. On Processing Intelligence Information by [portion of title exempt] 5th September 1958'
p2537
aS'1958'
p2538
aa(lp2539
S'4037963'
p2540
aS'A4311'
p2541
aS'686/13'
p2542
aS'[Research Methods Conference, Melbourne,  November 1958]. Cold War Problems - Economic Penetration by  [portion of title  exempted], 25th September 1958'
p2543
aS'1958'
p2544
aa(lp2545
S'4142296'
p2546
aS'A432'
p2547
aS'1969/3072 ATTACHMENT 1'
p2548
aS'W.G. Burchett'
p2549
aS'1954'
p2550
aa(lp2551
S'4142297'
p2552
aS'A432'
p2553
aS'1969/3072 ATTACHMENT 2'
p2554
aS'W.G. Burchett'
p2555
aS'1954'
p2556
aa(lp2557
S'4148644'
p2558
aS'A4090'
p2559
aS'A523/1/1 PART 1'
p2560
aS'Trials - 25 PR BE Shell'
p2561
aS'1944'
p2562
aa(lp2563
S'4151566'
p2564
aS'A1209'
p2565
aS'1975/2257'
p2566
aS'East Timor - Activities of Australian journalists'
p2567
aS'1976'
p2568
aa(lp2569
S'4185468'
p2570
aS'A9954'
p2571
aS'SE/10/D2'
p2572
aS'Agenda item 2b. The Communist insurgent threat to the Treaty area. Collated paper presented by the United Kingdom'
p2573
aS'1959'
p2574
aa(lp2575
S'4185470'
p2576
aS'A9954'
p2577
aS'SE/10/D3'
p2578
aS'Agenda item 3b. The inter-relations between Communist parties in the Treaty area and their role in furtherance of International Communist objectives. Collated paper presented by the United States'
p2579
aS'1959'
p2580
aa(lp2581
S'4185484'
p2582
aS'A9954'
p2583
aS'SE/12/D24'
p2584
aS'Agenda item 2a. The nature and extent of the Communist subversive and insurgent threats to the Treaty area. Collated paper presented by the United Kingdom'
p2585
aS'1959'
p2586
aa(lp2587
S'4185624'
p2588
aS'A9954'
p2589
aS'SE/13/D42 ADDENDUM 1'
p2590
aS'Communist insurgent threat to Pakistan - paper contributed by Pakistan'
p2591
aS'1960'
p2592
aa(lp2593
S'4192727'
p2594
aS'A6717'
p2595
aS'A65'
p2596
aS'Dr Rysard Stanislaw Zielinski'
p2597
aS'1961'
p2598
aa(lp2599
S'4192741'
p2600
aS'A6717'
p2601
aS'A111'
p2602
aS'Appointment of an additional assistant Trade Commissioner in Tokyo'
p2603
aS'1964'
p2604
aa(lp2605
S'4199198'
p2606
aS'A6283'
p2607
aS'146'
p2608
aS'Liaison with overseas intelligence services Volume 4 [Reference Copy]'
p2609
aS'1954'
p2610
aa(lp2611
S'4209561'
p2612
aS'A10463'
p2613
aS'822/5/1 PART 2'
p2614
aS'Jakarta - [portion of title exempt] Indonesia/Australia'
p2615
aS'1974'
p2616
aa(lp2617
S'4269362'
p2618
aS'A6119'
p2619
aS'3142'
p2620
aS'RUTHERFORD, John - Misc Papers'
p2621
aS'1971'
p2622
aa(lp2623
S'4269835'
p2624
aS'A6119'
p2625
aS'3242'
p2626
aS'FALCONER, James Albert - Misc Papers'
p2627
aS'1970'
p2628
aa(lp2629
S'4298505'
p2630
aS'D1423'
p2631
aS'FOLDER 60 SA2194'
p2632
aS'South Australian architectural drawing SA2194 - Cells, exercise yard and garage - Village Area- details of yard entrance gate and cell doors and benches'
p2633
aS'1949'
p2634
aa(lp2635
S'4716699'
p2636
aS'A12389'
p2637
aS'A8 PART 5'
p2638
aS'ASIO Organization, Functions and Responsibilities - Lecture Notes - Exercises - Second Edition - Document 6A'
p2639
aS'1975'
p2640
aa(lp2641
S'4725008'
p2642
aS'A12389'
p2643
aS'A34'
p2644
aS'ASIO document: BfV The West German Security Intelligence Service: Service Regulations'
p2645
aS'1975'
p2646
aa(lp2647
S'4725018'
p2648
aS'A12389'
p2649
aS'A47'
p2650
aS'ASIO document: Report on Activities by Aliens Constituting a Threat to Security: Translation of BfV document'
p2651
aS'1974'
p2652
aa(lp2653
S'4725028'
p2654
aS'A12389'
p2655
aS'A101'
p2656
aS'ASIO document: Review of and Recommendations for Restructuring the Surveillance Capacity of ASIO'
p2657
aS'1976'
p2658
aa(lp2659
S'4725029'
p2660
aS'A12389'
p2661
aS'A103'
p2662
aS'ASIO and ASIS document: Report on Scientific and Technical Resources dated July 1976'
p2663
aS'1976'
p2664
aa(lp2665
S'4725033'
p2666
aS'A12389'
p2667
aS'B2'
p2668
aS'ASIS document: Brief Background Notes on ASIS'
p2669
aS'1974'
p2670
aa(lp2671
S'4725217'
p2672
aS'A12389'
p2673
aS'A8 PART 2'
p2674
aS'ASIO Organization, Functions and Responsibilities - Lecture Notes document 5'
p2675
aS'1974'
p2676
aa(lp2677
S'4725218'
p2678
aS'A12389'
p2679
aS'A8 PART 3'
p2680
aS'ASIO Organization, Functions and Responsibilities - Lecture Notes -document 5A'
p2681
aS'1974'
p2682
aa(lp2683
S'4725219'
p2684
aS'A12389'
p2685
aS'A8 PART 4'
p2686
aS'ASIO Organization, Functions and Responsibilities - Lecture Notes - Exercises - First Edition - document 6'
p2687
aS'1974'
p2688
aa(lp2689
S'4725242'
p2690
aS'A12389'
p2691
aS'A21'
p2692
aS'ASIO Commonwealth Security Conferences'
p2693
aS'1975'
p2694
aa(lp2695
S'4725295'
p2696
aS'A12389'
p2697
aS'F10 ATTACHMENT 5'
p2698
aS'Department of Foreign Affairs information on Portuguese Timor part 2;  1. [portion of title exempt] on Portuguese Timor,   2. Reports from sundry Australian missions: Washington, London, Berne, Singapore, Kuala Lumpur, Bangkok, The Hague, Wellington,  3. Information and assessments from foreign diplomatic sources, 4. Australian press reports and commentary relating to Portuguese Timor, 5. Jakarta press reports'
p2699
aS'1975'
p2700
aa(lp2701
S'4725296'
p2702
aS'A12389'
p2703
aS'F10 ATTACHMENT 6'
p2704
aS'Department of Foreign Affairs Information on Portuguese Timor Part 3:  1. Assessments of Portuguese Timor situations made by Department of Foreign Affairs and Joint Intelligence Organization,  2. Ministerial submissions and major correspondence between Ministers on Portuguese Timor, 3. Briefs prepared by Department of Foreign Affairs, 4. Records of Conversations in Canberra or involving officers or Ministers from Canberra relating to Portuguese Timor, 5. Selections of significant telegrams from Canberra'
p2705
aS'1975'
p2706
aa(lp2707
S'4725299'
p2708
aS'A12389'
p2709
aS'F12 PART 1'
p2710
aS'Submission by Department of Foreign Affairs to Royal Commission on Intelligence and Security re Reporting on Developments in Thailand October 1973 - March 1975'
p2711
aS'1975'
p2712
aa(lp2713
S'4725304'
p2714
aS'A12389'
p2715
aS'F13 PART 1'
p2716
aS'Submission by Department of Foreign Affairs to Royal Commission on Intelligence and Security re [portion of title exempt]'
p2717
aS'1975'
p2718
aa(lp2719
S'4725310'
p2720
aS'A12389'
p2721
aS'F10 ATTACHMENT 3'
p2722
aS'Department of Foreign Affairs papers on Jakarta Riots'
p2723
aS'1974'
p2724
aa(lp2725
S'4725314'
p2726
aS'A12389'
p2727
aS'F18 PART 2'
p2728
aS'Department of Foreign Affairs Security Instructions'
p2729
aS'1974'
p2730
aa(lp2731
S'4725371'
p2732
aS'A12391'
p2733
aS'R13'
p2734
aS'Soviet Intelligence Operations Against Americans and US Installations Abroad: An Analysis of Soviet Doctrine and Practice'
p2735
aS'1968'
p2736
aa(lp2737
S'4725375'
p2738
aS'A12391'
p2739
aS'R18'
p2740
aS'The Satellite Intelligence and Security Services, June 1974'
p2741
aS'1974'
p2742
aa(lp2743
S'4725377'
p2744
aS'A12391'
p2745
aS'R20'
p2746
aS'Organisation and Methods of the Russian Intelligence Services (RIS), April 1974'
p2747
aS'1974'
p2748
aa(lp2749
S'4725397'
p2750
aS'A12391'
p2751
aS'R35'
p2752
aS'ASIO - The Lexi Control Manual'
p2753
aS'1975'
p2754
aa(lp2755
S'4725481'
p2756
aS'A12391'
p2757
aS'R98'
p2758
aS'New Scotland Yard Special Branch Annual Report 1974'
p2759
aS'1974'
p2760
aa(lp2761
S'4725500'
p2762
aS'A12381'
p2763
aS'4/4 PART 2'
p2764
aS'Joint Intelligence Organisation - Office of Current Intelligence - Daily Bulletins No 48/1975 (dated Thursday 17 April 1975)  to  No 106/1975 (dated Monday 18 August 1975)'
p2765
aS'1975'
p2766
aa(lp2767
S'4725598'
p2768
aS'A12381'
p2769
aS'20/48/1'
p2770
aS'Royal Commission on Intelligence and Security - Fourth Report - Draft - Correspondence'
p2771
aS'1977'
p2772
aa(lp2773
S'4725615'
p2774
aS'A12381'
p2775
aS'20/68'
p2776
aS'Royal Commission on Intelligence and Security  - Third Report - Defence, Joint Intelligence Organisation, National Intelligence Committee - Background'
p2777
aS'1977'
p2778
aa(lp2779
S'4725778'
p2780
aS'A12384'
p2781
aS'K/2/10 ATTACHMENT'
p2782
aS'West Germany - Intelligence and Security Services'
p2783
aS'1975'
p2784
aa(lp2785
S'4725804'
p2786
aS'A12384'
p2787
aS'K/19'
p2788
aS'The Helsby Report: Classification of Official Matter'
p2789
aS'1974'
p2790
aa(lp2791
S'4725815'
p2792
aS'A12385'
p2793
aS'AI/1'
p2794
aS'Boyle Mr Michael Dorrington Correspondence'
p2795
aS'1975'
p2796
aa(lp2797
S'4727310'
p2798
aS'A12395'
p2799
aS'19'
p2800
aS'Notes kept by Secretary George M Brownbill - Book 19 (annotated London book 12)'
p2801
aS'1975'
p2802
aa(lp2803
S'4727938'
p2804
aS'A12389'
p2805
aS'A33'
p2806
aS'ASIO Schedule for the Classification of Correspondence'
p2807
aS'1975'
p2808
aa(lp2809
S'4751119'
p2810
aS'A12391'
p2811
aS'R19'
p2812
aS'Czechoslovak Intelligence: Czechoslovak Ministry of Interior: Foreign Counterintelligence'
p2813
aS'1972'
p2814
aa(lp2815
S'4963069'
p2816
aS'A1533'
p2817
aS'1967/1981'
p2818
aS'FBI information re stolen American Express travellers cheques ($62 000) - New York'
p2819
aS'1967'
p2820
aa(lp2821
S'4963070'
p2822
aS'A1533'
p2823
aS'1967/1296'
p2824
aS'List of criminals wanted for murder by Italian authorities'
p2825
aS'1977'
p2826
aa(lp2827
S'4963082'
p2828
aS'A1533'
p2829
aS'1967/2614'
p2830
aS'FBI inquiry re MATIONG Florencio Lopez aka Chi Chi MARTINEZ, BOND Victor Gerald, MONTOYA Alfred Arthur, MONTOYA Harold Otto'
p2831
aS'1967'
p2832
aa(lp2833
S'4963083'
p2834
aS'A1533'
p2835
aS'1968/1593'
p2836
aS'Sinking of MV Wahine New Zealand'
p2837
aS'1968'
p2838
aa(lp2839
S'4963084'
p2840
aS'A1533'
p2841
aS'1967/182'
p2842
aS'Traffic in gold stolen from Canadian mines and RCMP booklet'
p2843
aS'1969'
p2844
aa(lp2845
S'5036146'
p2846
aS'A6980'
p2847
aS'S250333'
p2848
aS'Security screening - Sweden'
p2849
aS'1991'
p2850
aa(lp2851
S'5036147'
p2852
aS'A6980'
p2853
aS'S250155'
p2854
aS'Security screening procedure - Italy'
p2855
aS'1989'
p2856
aa(lp2857
S'5036152'
p2858
aS'A6980'
p2859
aS'S250335'
p2860
aS'Security screening - Malta'
p2861
aS'1989'
p2862
aa(lp2863
S'5493289'
p2864
aS'A5799'
p2865
aS'5/1968'
p2866
aS'Release of intelligence [portion of title withheld] - [Attached is JIC Report no. 1/1968]'
p2867
aS'1968'
p2868
aa(lp2869
S'5493290'
p2870
aS'A2031'
p2871
aS'14/1968'
p2872
aS'Release of intelligence [portion of title withheld]'
p2873
aS'1968'
p2874
aa(lp2875
S'5825253'
p2876
aS'A5799'
p2877
aS'217/1955'
p2878
aS'Antarctica - proposed soviet expedition'
p2879
aS'1955'
p2880
aa(lp2881
S'5829024'
p2882
aS'A5799'
p2883
aS'26/1943'
p2884
aS'Chemical warfare under tropical conditions'
p2885
aS'1943'
p2886
aa(lp2887
S'5830141'
p2888
aS'A2539'
p2889
aS'B1972/23'
p2890
aS'Report of Australian Delegation on the Conference on certain Seabed Boundaries between Australia and Indonesia and Seabed Boundaries between Australia and Papua New Guinea - Part 2 1972'
p2891
aS'1972'
p2892
aa(lp2893
S'5844812'
p2894
aS'A2539'
p2895
aS'B1972/7'
p2896
aS'Report of the Australian Delegation to the Fourth Session of the United Nations Enlarged Committee on the Peaceful Uses of the Seabed - Geneva 17 July - 21 August 1972'
p2897
aS'1972'
p2898
aa(lp2899
S'5844818'
p2900
aS'A2539'
p2901
aS'B1972/14'
p2902
aS'Report of the Australian Delegation on the Conference on certain Seabed Boundaries between Australia and Indonesia and certain Seabed and Territorial Boundaries etc - 1972'
p2903
aS'1972'
p2904
aa(lp2905
S'6925834'
p2906
aS'A6122'
p2907
aS'700'
p2908
aS'C P of A [Communist Party of Australia] Queensland - Wilston/Grange Branch'
p2909
aS'1949'
p2910
aa(lp2911
S'6930030'
p2912
aS'A7452'
p2913
aS'A15 PART 3'
p2914
aS'Indonesia - International relations with other countries including Australia'
p2915
aS'2002'
p2916
aa(lp2917
S'6930085'
p2918
aS'A7452'
p2919
aS'A87 PART 1'
p2920
aS'Nuclear policy [Portion of title exempt]'
p2921
aS'1979'
p2922
aa(lp2923
S'6930191'
p2924
aS'A7452'
p2925
aS'A122'
p2926
aS'Royal Commission on intelligence and security [RCIS] request for information'
p2927
aS'1977'
p2928
aa(lp2929
S'6930193'
p2930
aS'A7452'
p2931
aS'A124 PART 1'
p2932
aS'Inquiry into intelligence and security organisations [RCIS] - terms of reference and appointment of Royal Commissioner'
p2933
aS'1974'
p2934
aa(lp2935
S'6930197'
p2936
aS'A7452'
p2937
aS'A127 PART 1'
p2938
aS'Royal Commission into Intelligence and Security [RCIS] - third report'
p2939
aS'1976'
p2940
aa(lp2941
S'6930198'
p2942
aS'A7452'
p2943
aS'A127 PART 2'
p2944
aS'Royal Commission into Intelligence and Security [RCIS] - third report'
p2945
aS'1977'
p2946
aa(lp2947
S'6930201'
p2948
aS'A7452'
p2949
aS'A129'
p2950
aS'Royal Commission into Intelligence and Security [RCIS] - fourth report'
p2951
aS'1976'
p2952
aa(lp2953
S'6930220'
p2954
aS'A7452'
p2955
aS'A145'
p2956
aS'Intelligence and security services functions 1975'
p2957
aS'1989'
p2958
aa(lp2959
S'6930228'
p2960
aS'A7452'
p2961
aS'A150'
p2962
aS'[Title exempt]'
p2963
aS'1977'
p2964
aa(lp2965
S'6930243'
p2966
aS'A7452'
p2967
aS'A164'
p2968
aS'East Timor - reported deployment of Sabre aircraft and Nomad aircraft'
p2969
aS'1977'
p2970
aa(lp2971
S'6930256'
p2972
aS'A7452'
p2973
aS'A185 PART 1'
p2974
aS'Arab terrorist activities'
p2975
aS'1976'
p2976
aa(lp2977
S'6930259'
p2978
aS'A7452'
p2979
aS'A187 PART 1'
p2980
aS'Vietnam'
p2981
aS'1975'
p2982
aa(lp2983
S'6930346'
p2984
aS'A7452'
p2985
aS'A327 PART 1'
p2986
aS'Intelligence co-ordination arrangements'
p2987
aS'1980'
p2988
aa(lp2989
S'6930384'
p2990
aS'A7452'
p2991
aS'A391 PART 1'
p2992
aS'Hope Commission inquiry [RCSIA] into Sheraton Hotel incident'
p2993
aS'1986'
p2994
aa(lp2995
S'6930510'
p2996
aS'A7452'
p2997
aS'A531'
p2998
aS'[Title exempt]'
p2999
aS'1976'
p3000
aa(lp3001
S'6945946'
p3002
aS'A6980'
p3003
aS'S250758'
p3004
aS'Black September - terrorist activity - Part 2'
p3005
aS'1973'
p3006
aa(lp3007
S'7038089'
p3008
aS'A425'
p3009
aS'1970/5264'
p3010
aS'Cuba/Communist China economic relations'
p3011
aS'1965'
p3012
aa(lp3013
S'7163941'
p3014
aS'E1008'
p3015
aS'RBD180'
p3016
aS'Reserve Bank of Australia, Darwin -  Hydraulic services (water supply, sewerage, and stormwater drainage)'
p3017
aS'1966'
p3018
aa(lp3019
S'7425087'
p3020
aS'A10500'
p3021
aS'D54'
p3022
aS'Protective Security Review - Espionage'
p3023
aS'1978'
p3024
aa(lp3025
S'7426977'
p3026
aS'A12909'
p3027
aS'833'
p3028
aS'Submission No 833 :[title exempt] - Decision 1810 and 1848'
p3029
aS'1976'
p3030
aa(lp3031
S'7557674'
p3032
aS'A4531'
p3033
aS'201/1/3 PART O'
p3034
aS"Saigon - Vietnam personalities 'O' [re Republic of Vietnam also known as South Vietnam]"
p3035
aS'1966'
p3036
aa(lp3037
S'7557743'
p3038
aS'A4531'
p3039
aS'201/2/1 PART 19'
p3040
aS'Saigon - Vietnam - political general [re Republic of Vietnam also known as South Vietnam]'
p3041
aS'1975'
p3042
aa(lp3043
S'7559326'
p3044
aS'A5882'
p3045
aS'CO567 PART 3 ATTACHMENT'
p3046
aS'Law of the Sea - Application to Australia - 1971'
p3047
aS'1972'
p3048
aa(lp3049
S'7860452'
p3050
aS'A432'
p3051
aS'1968/2197'
p3052
aS'Shooting of Yugoslav in Act - press reports of Ustashi activity'
p3053
aS'1968'
p3054
aa(lp3055
S'7904529'
p3056
aS'A6980'
p3057
aS'S202471'
p3058
aS'OMMUNDSON Frederick'
p3059
aS'1970'
p3060
aa(lp3061
S'7913157'
p3062
aS'A432'
p3063
aS'1972/2757'
p3064
aS'Srecko Rover, Croatian - cancellation of passport'
p3065
aS'1973'
p3066
aa(lp3067
S'8306788'
p3068
aS'A1209'
p3069
aS'1970/6400 PART 2'
p3070
aS'Discussions between Indonesia and Australia regarding continental shelf boundary'
p3071
aS'1972'
p3072
aa(lp3073
S'8746024'
p3074
aS'AWM174'
p3075
aS'25'
p3076
aS"Five Years' Defence Programme - Five Years' Programme of the Joint Intelligence Organisation - Department of Defence"
p3077
aS'1950'
p3078
aa(lp3079
S'8843498'
p3080
aS'A1209'
p3081
aS'1972/6986'
p3082
aS'United Kingdom request for Ugandan Asians to enter Australia'
p3083
aS'1972'
p3084
aa(lp3085
S'8861381'
p3086
aS'A10756'
p3087
aS'LC1820'
p3088
aS'Status and salary of Director, Australian Secret Intelligence Service (ASIS) [Submission No. 1879 refers]'
p3089
aS'1978'
p3090
aa(lp3091
S'8861407'
p3092
aS'A12911'
p3093
ag310
aS'Fraser Ministries - Register of Cabinet Decisions Volume 1  (Decisions Nos 1 to 8250)'
p3094
aS'1979'
p3095
aa(lp3096
S'8910807'
p3097
aS'A1209'
p3098
aS'1977/881 PART 3'
p3099
aS'South African Apartheid Policy - General - 1973'
p3100
aS'1978'
p3101
aa(lp3102
S'8911305'
p3103
aS'A12909'
p3104
aS'1197'
p3105
aS'Submission No 1197 : [title exempt]  - Decision 2563'
p3106
aS'1977'
p3107
aa(lp3108
S'9022636'
p3109
aS'M1268'
p3110
aS'363'
p3111
aS'[Personal Papers of Prime Minister Fraser] Miscellaneous file of sensitive papers on Foreign Affairs or security matters'
p3112
aS'1983'
p3113
aa(lp3114
S'9615709'
p3115
aS'A13075'
p3116
aS'3609'
p3117
aS'Cabinet Minute - Decision No 3609 - [title exempt] - Without Submission'
p3118
aS'1977'
p3119
aa(lp3120
S'9615776'
p3121
aS'A13075'
p3122
aS'3711'
p3123
aS'Cabinet Minute - Decision No 3711 - [title exempt] - Without Submission'
p3124
aS'1977'
p3125
aa(lp3126
S'9762685'
p3127
aS'A1209'
p3128
aS'1971/9026 PART 1'
p3129
aS'Oil Prices - Organisation of Petroleum Exporting Countries (OPEC) Demands'
p3130
aS'1971'
p3131
aa(lp3132
S'9767085'
p3133
aS'A13075'
p3134
aS'4250/IS'
p3135
aS'Cabinet Minute (Intelligence and Security Committee) - Decision No 4250(IS) - Intelligence Arrangements with ASEAN Countries - Without Submission'
p3136
aS'1977'
p3137
aa(lp3138
S'9767288'
p3139
aS'A12933'
p3140
aS'122'
p3141
aS'Cabinet Paper No 122 : [title exempt] - File No LC1106'
p3142
aS'1977'
p3143
aa(lp3144
S'9767302'
p3145
aS'A12933'
p3146
aS'136'
p3147
aS'Cabinet Paper No 136 : [title exempt] - File No LC1106'
p3148
aS'1977'
p3149
aa(lp3150
S'9767353'
p3151
aS'A12933'
p3152
aS'191'
p3153
aS'Cabinet Paper No 191 : Intelligence arrangements with ASEAN Countries - Minister responsible : [Not recorded] - presented at Cabinet Meeting 1 November 1977 - Decision No 4250(IS) - File No LC1774'
p3154
aS'1977'
p3155
aa(lp3156
S'9780082'
p3157
aS'A2031'
p3158
aS'151/1945'
p3159
aS'151/1945 : Destruction of Japanese crops in South West Pacific area'
p3160
aS'1945'
p3161
aa(lp3162
S'9780120'
p3163
aS'A2031'
p3164
aS'192/1945'
p3165
aS'192/1945 : Destruction of Japanese crops'
p3166
aS'1945'
p3167
aa(lp3168
S'9780190'
p3169
aS'A2031'
p3170
aS'268/1945'
p3171
aS'268/1945  : Destruction of Japanese crops in South West Pacific area'
p3172
aS'1945'
p3173
aa(lp3174
S'11383991'
p3175
aS'A9511'
p3176
aS'DNIS 1-13'
p3177
aS'Intelligence requests for information'
p3178
aS'1968'
p3179
aa(lp3180
S'11455931'
p3181
aS'A10756'
p3182
aS'LC209 PART 1'
p3183
aS'East Timor [Submission No. 1865 refers]'
p3184
aS'1982'
p3185
aa(lp3186
S'12041784'
p3187
aS'M319'
p3188
aS'47 PART 1'
p3189
aS"[Sir John Bunting: Copies of outward correspondence] Secretary's 'pinks', September 1973"
p3190
aS'1973'
p3191
aa(lp3192
S'12099780'
p3193
aS'A5034'
p3194
aS'1973/2136 PART 3'
p3195
aS'Croation Terrorism: Relations with Yugoslav Government - Part 3'
p3196
aS'1976'
p3197
aa(lp3198
S'12128217'
p3199
aS'A6122'
p3200
aS'1121/REFERENCE COPY'
p3201
aS'Communist Party of Australia - Italian Club Victoria'
p3202
aS'1955'
p3203
aa(lp3204
S'12369164'
p3205
aS'MP1784/1'
p3206
aS'CROATIANS'
p3207
aS'Croatians'
p3208
aS'1940'
p3209
aa(lp3210
S'12372904'
p3211
aS'M2565'
p3212
ag310
aS'Personal and official papers of A C RENTOUL [ Mould affected - Reference copy available]'
p3213
aS'1939'
p3214
aa(lp3215
S'12574450'
p3216
aS'A6122'
p3217
aS'1029'
p3218
aS'Communist Party of Australia - Papua New Guinea, illegal apparatus'
p3219
aS'1956'
p3220
aa(lp3221
S'12574485'
p3222
aS'A6122'
p3223
aS'552'
p3224
aS'CPA [Communist Party of Australia] - Control Commission - Western Australia'
p3225
aS'1949'
p3226
aa(lp3227
S'12761591'
p3228
aS'B1387'
p3229
aS'1991/739'
p3230
aS'Claims in Australian Antarctic Territory'
p3231
aS'1976'
p3232
aa(lp3233
S'12849984'
p3234
aS'J27'
p3235
aS'MB11700'
p3236
aS'NEWMAN, William George - service number 3865; war widow Lucretia; [file only contains information on Lucretia NEWMAN] - [Box 139]'
p3237
aS'1983'
p3238
aa(lp3239
S'12860384'
p3240
aS'A6122'
p3241
aS'1099'
p3242
aS'Communist Party of Australia - Illegal organisation (photos)'
p3243
aS'1956'
p3244
aa(lp3245
S'12920412'
p3246
aS'E1568'
p3247
aS'17'
p3248
aS'Northern Territory Force - Operational Plan No. 1/66'
p3249
aS'1976'
p3250
aa(lp3251
S'30030462'
p3252
aS'A1533'
p3253
aS'1967/182'
p3254
aS'Traffic in gold stolen from Canadian mines and RCMP booklet'
p3255
aS'1969'
p3256
aa(lp3257
S'30030467'
p3258
aS'A1533'
p3259
aS'1967/1296'
p3260
aS'List of criminals wanted for murder by Italian authorities'
p3261
aS'1977'
p3262
aa(lp3263
S'30030472'
p3264
aS'A1533'
p3265
aS'1967/2614'
p3266
aS'FBI inquiry re MATIONG Florencio Lopez aka Chi Chi MARTINEZ, BOND Victor Gerald, MONTOYA Alfred Arthur, MONTOYA Harold Otto'
p3267
aS'1967'
p3268
aa(lp3269
S'30030478'
p3270
aS'A1533'
p3271
aS'1968/1593'
p3272
aS'Sinking of MV Wahine New Zealand'
p3273
aS'1968'
p3274
aa(lp3275
S'30030930'
p3276
aS'A6119'
p3277
aS'149'
p3278
aS'HEALY, James Volume 1'
p3279
aS'1950'
p3280
aa(lp3281
S'30091002'
p3282
aS'A12909'
p3283
aS'2773'
p3284
aS'[Reference copy] Submission No 2773 : [title exempt] - Decision 7263(IS)'
p3285
aS'1978'
p3286
aa(lp3287
S'30091026'
p3288
aS'A12909'
p3289
aS'2825'
p3290
aS'Submission No 2825 : [Title exempt]'
p3291
aS'1978'
p3292
aa(lp3293
S'30091028'
p3294
aS'A12909'
p3295
aS'2032'
p3296
aS'[Reference copy of] Submission No 2032 : [Title exempt] - Decision 5011(IS)'
p3297
aS'1978'
p3298
aa(lp3299
S'30091067'
p3300
aS'A12389'
p3301
aS'AA2'
p3302
aS'Activities of the Russian Intelligence Service in Australia'
p3303
aS'1976'
p3304
aa(lp3305
S'30091109'
p3306
aS'A12389'
p3307
aS'BB1'
p3308
aS'ASIS Station [portion of title exempt]'
p3309
aS'1974'
p3310
aa(lp3311
S'30091110'
p3312
aS'A12389'
p3313
aS'BB2'
p3314
aS'[portion of title exempt] Production October 1971 - April 1973'
p3315
aS'1973'
p3316
aa(lp3317
S'30091111'
p3318
aS'A12389'
p3319
aS'BB3'
p3320
aS'The [portion of title exempt] Case - January 1975'
p3321
aS'1975'
p3322
aa(lp3323
S'30091112'
p3324
aS'A12389'
p3325
aS'BB4'
p3326
aS'The [portion of title exempt] Case - January 1975'
p3327
aS'1975'
p3328
aa(lp3329
S'30091113'
p3330
aS'A12389'
p3331
aS'BB5'
p3332
aS'The [portion of title exempt] Case - January 1975'
p3333
aS'1975'
p3334
aa(lp3335
S'30091114'
p3336
aS'A12389'
p3337
aS'BB6'
p3338
aS'The [portion of title exempt] Case - January 1975'
p3339
aS'1975'
p3340
aa(lp3341
S'30091115'
p3342
aS'A12389'
p3343
aS'BB7'
p3344
aS'The [portion of title exempt] Case - January 1975'
p3345
aS'1975'
p3346
aa(lp3347
S'30091116'
p3348
aS'A12389'
p3349
aS'BB8'
p3350
aS'The [portion of title exempt] Case - January 1975'
p3351
aS'1975'
p3352
aa(lp3353
S'30091117'
p3354
aS'A12389'
p3355
aS'BB9'
p3356
aS'[portion of title exempt] Operations - March 1975'
p3357
aS'1975'
p3358
aa(lp3359
S'30091118'
p3360
aS'A12389'
p3361
aS'BB10'
p3362
aS'Financial Arrangements for ASIS March 1975 - March 1975'
p3363
aS'1975'
p3364
aa(lp3365
S'30091120'
p3366
aS'A12389'
p3367
aS'BB12'
p3368
aS'ASIS Station [portion of title exempt] Background - January 1975'
p3369
aS'1975'
p3370
aa(lp3371
S'30091121'
p3372
aS'A12389'
p3373
aS'BB13'
p3374
aS'Station Directives - April 1975'
p3375
aS'1975'
p3376
aa(lp3377
S'30091122'
p3378
aS'A12389'
p3379
aS'BB14'
p3380
aS'The [portion of title exempt] Case - November 1975'
p3381
aS'1975'
p3382
aa(lp3383
S'30485363'
p3384
aS'A6122'
p3385
aS'2637'
p3386
aS'Operation Adjutant Volume 5 part 1 - General court martial proceedings, SAC Michael Julien Brown 17 December 1958'
p3387
aS'1958'
p3388
aa(lp3389
S'30488810'
p3390
aS'A12909'
p3391
aS'3894'
p3392
aS'Submission No 3894 : [Title exempt] - No Decision'
p3393
aS'1980'
p3394
aa(lp3395
S'30488813'
p3396
aS'A12909'
p3397
aS'3992'
p3398
aS'Submission No 3992 : [title exempt] - Related to Decision No 11703(IS)'
p3399
aS'1980'
p3400
aa(lp3401
S'30839007'
p3402
aS'A13075'
p3403
aS'13902/FAD'
p3404
aS'Decision No 13902/FAD - [Title exempt] - Without Submission'
p3405
aS'1981'
p3406
aa(lp3407
S'30941894'
p3408
aS'A12909'
p3409
aS'5679'
p3410
aS'Submission No 5679 - [Title exempt] -'
p3411
aS'1982'
p3412
aa(lp3413
S'31170608'
p3414
aS'A432'
p3415
aS'86/9712-1'
p3416
aS'[Title Exempt]'
p3417
aS'1986'
p3418
aa(lp3419
S'31398087'
p3420
aS'A13979'
p3421
aS'2059/NIS'
p3422
aS'Cabinet Decision 2059/NIS - Title exempt - Without Submission'
p3423
aS'1983'
p3424
aa(lp3425
S'31410850'
p3426
aS'J3152'
p3427
aS'E1008/25'
p3428
aS'Checklist - Original copies of drawings, single number series [CA8312 Works Australia, State Office, Northern Territory]'
p3429
aS'1996'
p3430
aa(lp3431
S'31426623'
p3432
aS'A14039'
p3433
aS'1985'
p3434
aS'Cabinet Submission 1985 - Title exempt - Decision 4654/SEC'
p3435
aS'1985'
p3436
aa(lp3437
S'31428444'
p3438
aS'A14039'
p3439
aS'4207'
p3440
aS'Cabinet Submission 4207 - Project NULKA - Decision 8128'
p3441
aS'1986'
p3442
aa(lp3443
S'31516991'
p3444
aS'A14039'
p3445
aS'4947'
p3446
aS'Cabinet Memorandum 4947 - Ttitle exempt - Decision 9781/SEC'
p3447
aS'1987'
p3448
aa(lp3449
S'31516993'
p3450
aS'A14039'
p3451
aS'4962'
p3452
aS'Cabinet Memorandum 4962 - Reference copy of - Secretaries Committee on Intelligence and Security (SCIS) report to Ministers on the activities of the intelligence and security agencies in 1985-1986 - Decision 9780/SEC'
p3453
aS'1987'
p3454
aa(lp3455
S'31517052'
p3456
aS'A14039'
p3457
aS'5353'
p3458
aS'Cabinet Memorandum 5353 - SCIS Report to MInisters on the activities of the Intelligence and Security Agencies in 1986-87 - Decision 10780/SEC'
p3459
aS'1988'
p3460
aa(lp3461
S'140757'
p3462
aS'A1838'
p3463
aS'3034/2/2/2 PART 7'
p3464
aS'Indonesia. Communism in Indonesia'
p3465
aS'1962'
p3466
aa(lp3467
S'170962'
p3468
aS'A816'
p3469
aS'41/301/176'
p3470
aS'[Title of item withheld]'
p3471
aS'1952'
p3472
aa(lp3473
S'170971'
p3474
aS'A816'
p3475
aS'41/301/195'
p3476
aS'Exchange of staff between Joint Intelligence Bureau (Melbourne) and Joint Intelligence Bureau (London) - personal letter from Sir Harold Parker'
p3477
aS'1958'
p3478
aa(lp3479
S'171089'
p3480
aS'A816'
p3481
aS'43/302/76'
p3482
aS'Cryptographic Material for ASIO'
p3483
aS'1952'
p3484
aa(lp3485
S'171129'
p3486
aS'A816'
p3487
aS'44/301/219'
p3488
aS'SEATO [South East Asia Treaty Organisation] Combined Training Exercise "AIR LINK" Bangkok 28 May - 1 June 1957'
p3489
aS'1957'
p3490
aa(lp3491
S'200166'
p3492
aS'A1196'
p3493
aS'29/501/225'
p3494
aS'Evasion of Customs Regulations - RAAF Station, Rathmines'
p3495
aS'1944'
p3496
aa(lp3497
S'235342'
p3498
aS'A3269'
p3499
aS'Q4'
p3500
aS'[The Official History of the Operations and Administration of Special Operations Australia (SOA), also known as the Inter-Allied Services Department (ISD) and Services Reconnaissance Department (SRD) - Volume 4 - Training Syllabi - Part 4 - Handbook on Telecommunications and Railway Sabotage]'
p3501
aS'1943'
p3502
aa(lp3503
S'235375'
p3504
aS'A3269'
p3505
aS'R16'
p3506
aS'[SRD (Services Reconnaissance Department) Technical Section -] Shipping [Sabotage] Handbook [Volume 4 - this appears to be a draft of R14/C]'
p3507
aS'1943'
p3508
aa(lp3509
S'235377'
p3510
aS'A3269'
p3511
aS'R18/A'
p3512
aS'Lecture handouts - clandestine operations'
p3513
aS'1957'
p3514
aa(lp3515
S'235729'
p3516
aS'A3300'
p3517
aS'256'
p3518
aS'[1943 file - purple tab] Federal Bureau of Investigation (exchange of information)'
p3519
aS'1943'
p3520
aa(lp3521
S'267140'
p3522
aS'A816'
p3523
aS'11/301/1063'
p3524
aS'ANZUS staff planners meeting, Pearl Harbour, March 1956'
p3525
aS'1956'
p3526
aa(lp3527
S'270755'
p3528
aS'A6119'
p3529
aS'73'
p3530
aS'CHANDLER, Herbert, Bovyll - Volume 3'
p3531
aS'1953'
p3532
aa(lp3533
S'270759'
p3534
aS'A6119'
p3535
aS'94'
p3536
aS'Nina CHRISTESEN [and Clem CHRISTESEN]'
p3537
aS'1954'
p3538
aa(lp3539
S'270819'
p3540
aS'A6283'
p3541
aS'146'
p3542
aS'Liaison with overseas intelligence services Vol.4'
p3543
aS'1800'
p3544
aa(lp3545
S'272503'
p3546
aS'A6119'
p3547
aS'96'
p3548
aS'Ric Prichard THROSSELL Volume 2.'
p3549
aS'1954'
p3550
aa(lp3551
S'273254'
p3552
aS'A1838'
p3553
aS'169/11/87 PART 18'
p3554
aS'India - Relations with China.'
p3555
aS'1962'
p3556
aa(lp3557
S'273347'
p3558
aS'A1838'
p3559
aS'152/2/1 PART 12'
p3560
aS'Cyprus - Political developments - General'
p3561
aS'1966'
p3562
aa(lp3563
S'276707'
p3564
aS'A6119'
p3565
aS'173'
p3566
aS'Claudio ALCORSO'
p3567
aS'1954'
p3568
aa(lp3569
S'276712'
p3570
aS'A6122'
p3571
aS'197'
p3572
aS"Australia Meat Industry Employees' Union Queensland."
p3573
aS'1954'
p3574
aa(lp3575
S'277741'
p3576
aS'A6122'
p3577
aS'356'
p3578
aS'Communist Activity - Pine Creek - Katherine - Mataranka Area N.T.'
p3579
aS'1955'
p3580
aa(lp3581
S'279306'
p3582
aS'A6122'
p3583
aS'269'
p3584
aS'CPA [Communist Party of Australia] activity and interest in Sydney University - NSW. Volume 1 [93 pages. 60 of these contain exemptions]'
p3585
aS'1964'
p3586
aa(lp3587
S'279320'
p3588
aS'A6122'
p3589
aS'261'
p3590
aS'C P of A [communist] [party] [australia] interest in schools and education. Volume 1'
p3591
aS'1955'
p3592
aa(lp3593
S'279340'
p3594
aS'A6122'
p3595
aS'249'
p3596
aS'Communist Party of Australia - activities in libraries - Canberra. Volume 1'
p3597
aS'1954'
p3598
aa(lp3599
S'279652'
p3600
aS'A1838'
p3601
aS'181/1/4 PART 1'
p3602
aS'Middle East - Joint Intelligence Committee weekly review of Middle East'
p3603
aS'1957'
p3604
aa(lp3605
S'279653'
p3606
aS'A1838'
p3607
aS'181/1/4 PART 2'
p3608
aS'Middle East - Joint Intelligence Committee - weekly review of Middle East'
p3609
aS'1969'
p3610
aa(lp3611
S'280170'
p3612
aS'A5954'
p3613
aS'1599/8'
p3614
aS'Higher Defence Organisation Constitution and Terms of Reference of Chemical Defence Board ... Chemical and Biological Warfare Subcommittee ... New Weapons and Equipment Committee ... Chemical Defence Board'
p3615
aS'1948'
p3616
aa(lp3617
S'302544'
p3618
aS'A1209'
p3619
aS'1957/4254'
p3620
aS'ANZUS Council meeting - Washington, November 1956'
p3621
aS'1956'
p3622
aa(lp3623
S'304326'
p3624
aS'A432'
p3625
aS'1969/3072 ATTACHMENT 1'
p3626
aS'Wilfred Graham Burchett'
p3627
aS'1954'
p3628
aa(lp3629
S'304327'
p3630
aS'A432'
p3631
aS'1969/3072 ATTACHMENT 2'
p3632
aS'Wilfred Graham Burchett'
p3633
aS'1954'
p3634
aa(lp3635
S'424616'
p3636
aS'A6122'
p3637
aS'525'
p3638
aS'Communist Party of Australia - South Australia Aggregate Meetings'
p3639
aS'1949'
p3640
aa(lp3641
S'424617'
p3642
aS'A6122'
p3643
aS'503'
p3644
aS'Communist Party of Australia - Branches Victoria St. Kilda Branch Volume 1'
p3645
aS'1949'
p3646
aa(lp3647
S'424618'
p3648
aS'A6122'
p3649
aS'501'
p3650
aS'Communist Party of Australia - Branches Vicdtoria Boot Trade Branch'
p3651
aS'1949'
p3652
aa(lp3653
S'424619'
p3654
aS'A6122'
p3655
aS'500'
p3656
aS'Communist Party of Australia - Branches Victoria AbbotsfordBrewery Branch'
p3657
aS'1949'
p3658
aa(lp3659
S'424620'
p3660
aS'A6122'
p3661
aS'499'
p3662
aS'Communist Party of Australia - Branches - Victoria Exchange Branch'
p3663
aS'1949'
p3664
aa(lp3665
S'424648'
p3666
aS'A6122'
p3667
aS'495'
p3668
aS'Commonwealth Party of Australia - Branches Victoria - SEC Green Street Branch'
p3669
aS'1949'
p3670
aa(lp3671
S'424650'
p3672
aS'A6122'
p3673
aS'489'
p3674
aS'Communist Party of Australia. Branches Victoria Munitions Branch'
p3675
aS'1949'
p3676
aa(lp3677
S'424651'
p3678
aS'A6122'
p3679
aS'482'
p3680
aS'Communist Party of Australia - Unemployed Relief Committee Western Australia'
p3681
aS'1949'
p3682
aa(lp3683
S'424656'
p3684
aS'A6122'
p3685
aS'466'
p3686
aS'Communist Party of Australia - relations with Communist Party of the Soviet Union'
p3687
aS'1949'
p3688
aa(lp3689
S'424666'
p3690
aS'A6122'
p3691
aS'453'
p3692
aS'CP of A [Communist Party of Australia] Cultural Activity SA [South Australia]'
p3693
aS'1949'
p3694
aa(lp3695
S'424668'
p3696
aS'A6122'
p3697
aS'452'
p3698
aS'CP of A [Communist Party of Australia] - Cultural Activities, NSW [New South Wales]'
p3699
aS'1949'
p3700
aa(lp3701
S'424915'
p3702
aS'A6980'
p3703
aS'S250846'
p3704
aS'Security Screening Procedure - Netherlands'
p3705
aS'1992'
p3706
aa(lp3707
S'426042'
p3708
aS'A6122'
p3709
aS'563'
p3710
aS'CPA [Communist Party of Australia] - Committees NSW [New South Wales] - School Committee'
p3711
aS'1949'
p3712
aa(lp3713
S'426043'
p3714
aS'A6122'
p3715
aS'562'
p3716
aS'CPA [Communist Party of Australia] Youth Committee - South Australia'
p3717
aS'1949'
p3718
aa(lp3719
S'426044'
p3720
aS'A6122'
p3721
aS'561'
p3722
aS"CPA [Communist Party of Australia] - Women's Committee Western Australia"
p3723
aS'1949'
p3724
aa(lp3725
S'426045'
p3726
aS'A6122'
p3727
aS'560'
p3728
aS'CPA [Communist Party of Australia] Youth Sub-Committee - Western Australia'
p3729
aS'1949'
p3730
aa(lp3731
S'426047'
p3732
aS'A6122'
p3733
aS'558'
p3734
aS'CPA - [Communist Party of Australia] - Trade Union Committee - Tasmania'
p3735
aS'1949'
p3736
aa(lp3737
S'426050'
p3738
aS'A6122'
p3739
aS'555'
p3740
aS'CPA [Communist Party of Australia] - Arts Committee, Victoria'
p3741
aS'1949'
p3742
aa(lp3743
S'426051'
p3744
aS'A6122'
p3745
aS'554'
p3746
aS'CPA - [Communist Party of Australia] Victoria Propaganda Committee'
p3747
aS'1949'
p3748
aa(lp3749
S'426052'
p3750
aS'A6122'
p3751
aS'553'
p3752
aS'CPA [Communist Party of Australia] NSW [New South Wales] Student Committee'
p3753
aS'1949'
p3754
aa(lp3755
S'426054'
p3756
aS'A6122'
p3757
aS'551'
p3758
aS'CPA - [Communist Party of Australia] Propaganda Committees - South Australia'
p3759
aS'1949'
p3760
aa(lp3761
S'426057'
p3762
aS'A6122'
p3763
aS'548'
p3764
aS'CP of A [Communist Party of Australia - State Committee Tasmania - Volume 2'
p3765
aS'1949'
p3766
aa(lp3767
S'426552'
p3768
aS'A6122'
p3769
aS'643'
p3770
aS'CP of A [Communist Party of Australia] - N.S.W. [New South Wales] - Newcastle District Metal Section'
p3771
aS'1949'
p3772
aa(lp3773
S'426553'
p3774
aS'A6122'
p3775
aS'644'
p3776
aS'CP of A [Communist Party of Australia] Sections N.S.W. Bankstown/Chullora Section'
p3777
aS'1949'
p3778
aa(lp3779
S'427513'
p3780
aS'A6122'
p3781
aS'516'
p3782
aS"CP of A [Communist Party of Australia] General Motors Holdens Fishermen's Bend Branch - Victoria"
p3783
aS'1955'
p3784
aa(lp3785
S'427875'
p3786
aS'A6122'
p3787
aS'579'
p3788
aS'Communist Party of Australia ( CPA ) Newcastle / Hunter Valley ( Branch / District ) Volume 1'
p3789
aS'1955'
p3790
aa(lp3791
S'429431'
p3792
aS'A6122'
p3793
aS'710'
p3794
aS'C P of A [Communist Party of Australia] Queensland Ross River Meat Works Branch'
p3795
aS'1949'
p3796
aa(lp3797
S'429434'
p3798
aS'A6122'
p3799
aS'709'
p3800
aS'C P of A [Communist Party of Australia] Queensland Norman Park Branch'
p3801
aS'1949'
p3802
aa(lp3803
S'429436'
p3804
aS'A6122'
p3805
aS'708'
p3806
aS'C P of A [Communist Party of Australia] Queensland Charleville Branch'
p3807
aS'1949'
p3808
aa(lp3809
S'429438'
p3810
aS'A6122'
p3811
aS'705'
p3812
aS'C P of A [Communist Party of Australia] Queensland South Brisbane Branch'
p3813
aS'1949'
p3814
aa(lp3815
S'429439'
p3816
aS'A6122'
p3817
aS'704'
p3818
aS'C P of A Qld [Communist Party of Australia Queensland] Shipyards Branch'
p3819
aS'1949'
p3820
aa(lp3821
S'429441'
p3822
aS'A6122'
p3823
aS'703'
p3824
aS'C P of A [Communist Party of Australia] Queensland Toombul Branch'
p3825
aS'1949'
p3826
aa(lp3827
S'429446'
p3828
aS'A6122'
p3829
aS'700'
p3830
aS'C P of A [Communist Party of Australia] Queensland - Wilston/Grange Branch'
p3831
aS'1949'
p3832
aa(lp3833
S'429449'
p3834
aS'A6122'
p3835
aS'698'
p3836
aS'C P of A [Communist Party of Australia] Queensland General Branch formerly known as Brisbane Hospital Branch'
p3837
aS'1949'
p3838
aa(lp3839
S'431263'
p3840
aS'A6122'
p3841
aS'726'
p3842
aS'CPA Qld [Communist Party of Australia Queensland] - Cairns Queerah Meatworks Branch. [All 2 folios exempt]'
p3843
aS'1954'
p3844
aa(lp3845
S'431287'
p3846
aS'A6122'
p3847
aS'737'
p3848
aS'Communist Party of Australia - Queensland - Sergeants Branch'
p3849
aS'1949'
p3850
aa(lp3851
S'431288'
p3852
aS'A6122'
p3853
aS'738'
p3854
aS'CP of A [Communist Party of Australia] - Branches Queensland - North Industrial Branch'
p3855
aS'1949'
p3856
aa(lp3857
S'431289'
p3858
aS'A6122'
p3859
aS'739'
p3860
aS'CP of A [Communist Party of Australia] - Queensland Virginia Branch'
p3861
aS'1949'
p3862
aa(lp3863
S'431763'
p3864
aS'A1838'
p3865
aS'TS686/4 PART 3'
p3866
aS'Regional Defence. Pacific, East and South East Asia. ANZUS military machinery. (ANZUS Staff Planners, Military Advisers, etc.) [64pp]'
p3867
aS'1955'
p3868
aa(lp3869
S'441180'
p3870
aS'A6122'
p3871
aS'773'
p3872
aS'Communist Party of Australia. NSW Ross Street Technical College Branch'
p3873
aS'1949'
p3874
aa(lp3875
S'441181'
p3876
aS'A6122'
p3877
aS'772'
p3878
aS'Communist Party of Australia. NSW Matraville/La Perouse Branch'
p3879
aS'1949'
p3880
aa(lp3881
S'441196'
p3882
aS'A6122'
p3883
aS'756'
p3884
aS'Communist Party of Australia. Branches NSW, West Mascot Branch'
p3885
aS'1949'
p3886
aa(lp3887
S'441197'
p3888
aS'A6122'
p3889
aS'755'
p3890
aS'Communist Party of Australia. Branches NSW, East Mascot Branch'
p3891
aS'1949'
p3892
aa(lp3893
S'451165'
p3894
aS'A6119'
p3895
aS'296'
p3896
aS'Edward George ROBERTSON Volume 3'
p3897
aS'1959'
p3898
aa(lp3899
S'451892'
p3900
aS'A6119'
p3901
aS'343'
p3902
aS'Ian Frank George MILNER volume 3'
p3903
aS'1957'
p3904
aa(lp3905
S'457289'
p3906
aS'A6122'
p3907
aS'882'
p3908
aS'CPA [Communist Party of Australia] Defeat the Menzies Govt. [Government] Campaign Deputation to Canberra'
p3909
aS'1954'
p3910
aa(lp3911
S'510380'
p3912
aS'A6122'
p3913
aS'917'
p3914
aS'CPA (SA) [Communist Party of Australia (South Australia)] Finance'
p3915
aS'1956'
p3916
aa(lp3917
S'510381'
p3918
aS'A6122'
p3919
aS'918'
p3920
aS'CPA (WA) [Communist Party of Australia, Western Australia)] Finance'
p3921
aS'1956'
p3922
aa(lp3923
S'510802'
p3924
aS'AWM54'
p3925
aS'179/1/22'
p3926
aS'[Chemical Warfare - General:] Headquarters, United States Army Services of Supply, South West Pacific Area, Office of the Chief Chemical Officer: Chemical Warfare Intelligence Digest, Nov 1944'
p3927
aS'1945'
p3928
aa(lp3929
S'510807'
p3930
aS'AWM54'
p3931
aS'179/5/1 PART 8'
p3932
aS'[Chemical Warfare - Trials:] Reports from the Chemical Defence Board, Research and Experimental Section, Innisfail, Queensland [Part 8 of 10]'
p3933
aS'1944'
p3934
aa(lp3935
S'510827'
p3936
aS'AWM54'
p3937
aS'179/5/1 PART 3'
p3938
aS'[Chemical Warfare - Trials:] Reports from the Chemical Defence Board, Research and Experimental Section, Innisfail, Queensland [Part 3 of 10]'
p3939
aS'1944'
p3940
aa(lp3941
S'526756'
p3942
aS'A6122'
p3943
aS'1222'
p3944
aS'Catholic Action Part 2 (File is non-sequential with part 1)'
p3945
aS'1960'
p3946
aa(lp3947
S'543763'
p3948
aS'AWM54'
p3949
aS'179/5/20'
p3950
aS'[Chemical Warfare - Trials:] 1) Revision of basic sampling and venting periods for Chemical Weapons; 2) A review of information derived from trials in the tropics up to May 1944; 3) Reports on trials held in Townsville, Canungra, Holdsworthy, to determine the effect of wearing respirators A/CAS light'
p3951
aS'1944'
p3952
aa(lp3953
S'551763'
p3954
aS'A1838'
p3955
aS'748/2/4 PART 1'
p3956
aS'Vietnam - Industry and raw materials'
p3957
aS'1971'
p3958
aa(lp3959
S'553268'
p3960
aS'A1838'
p3961
aS'1495/1/9/4 PART 4'
p3962
aS'Antarctic - International Geophysical Year - Russian Participation'
p3963
aS'1956'
p3964
aa(lp3965
S'558639'
p3966
aS'A1838'
p3967
aS'756/1/4 PART 2'
p3968
aS'Australia-Portugal - Negotiations on Portuguese Timor - Continental shelf'
p3969
aS'1973'
p3970
aa(lp3971
S'583686'
p3972
aS'A1838'
p3973
aS'3034/7/7 PART 1'
p3974
aS'Indonesia - Foreign aid to Indonesia'
p3975
aS'1965'
p3976
aa(lp3977
S'658557'
p3978
aS'A6119'
p3979
aS'421'
p3980
aS'Geoffrey SAWER'
p3981
aS'1958'
p3982
aa(lp3983
S'664377'
p3984
aS'A6119'
p3985
aS'414'
p3986
aS'Annie Margaret McARTHUR'
p3987
aS'1959'
p3988
aa(lp3989
S'666008'
p3990
aS'A6122'
p3991
aS'1142'
p3992
aS'Communist Party of Australia - Eureka Youth League.'
p3993
aS'1949'
p3994
aa(lp3995
S'697820'
p3996
aS'A6126'
p3997
aS'112'
p3998
aS'Doris Amelia BLACKBURN'
p3999
aS'1960'
p4000
aa(lp4001
S'703069'
p4002
aS'A6122'
p4003
aS'1198'
p4004
aS'Catholic Action Part 1 (File is non-sequential with part 2)'
p4005
aS'1958'
p4006
aa(lp4007
S'724151'
p4008
aS'A6119'
p4009
aS'522'
p4010
aS'Dr Julius STONE'
p4011
aS'1955'
p4012
aa(lp4013
S'737142'
p4014
aS'C123'
p4015
aS'11612'
p4016
aS'Glasheen, Denise Nancy [Box 359]'
p4017
aS'1943'
p4018
aa(lp4019
S'759299'
p4020
aS'A6119'
p4021
aS'530'
p4022
aS'Ronald William NEAVE Vol 1'
p4023
aS'1959'
p4024
aa(lp4025
S'763339'
p4026
aS'A6119'
p4027
aS'566'
p4028
aS'William J LATONA'
p4029
aS'1961'
p4030
aa(lp4031
S'763340'
p4032
aS'A6119'
p4033
aS'565'
p4034
aS'Phyllis LATONA'
p4035
aS'1961'
p4036
aa(lp4037
S'777742'
p4038
aS'A1209'
p4039
aS'1961/83'
p4040
aS'Procedure for handling Soviet and satellite defectors'
p4041
aS'1973'
p4042
aa(lp4043
S'801095'
p4044
aS'A6119'
p4045
aS'619'
p4046
aS'Frederick Edmund EMERY Volume 2 [45 pages - 34 of these contain exemptions]'
p4047
aS'1961'
p4048
aa(lp4049
S'833140'
p4050
aS'A6122'
p4051
aS'1223'
p4052
aS'CPA [Communist Party of Australia] NSW - Austral Bronze branch'
p4053
aS'1961'
p4054
aa(lp4055
S'833156'
p4056
aS'A6122'
p4057
aS'1224'
p4058
aS'CPA [Communist Party of Australia] Victoria - Austral Bronze branch'
p4059
aS'1961'
p4060
aa(lp4061
S'834147'
p4062
aS'A816'
p4063
aS'19/305/141'
p4064
aS'Indonesia'
p4065
aS'1952'
p4066
aa(lp4067
S'877010'
p4068
aS'A6119'
p4069
aS'665'
p4070
aS'George Ernest Archer RUSSELL'
p4071
aS'1960'
p4072
aa(lp4073
S'882094'
p4074
aS'A6119'
p4075
aS'645'
p4076
aS'Ivan Fedorovich SKRIPOV, volume 8'
p4077
aS'1961'
p4078
aa(lp4079
S'883947'
p4080
aS'A6122'
p4081
aS'1260'
p4082
aS'Australian Institute of International Affairs, volume 2'
p4083
aS'1961'
p4084
aa(lp4085
S'886646'
p4086
aS'A6126'
p4087
aS'156'
p4088
aS'FREESTONE, Robert Cyril'
p4089
aS'1964'
p4090
aa(lp4091
S'886739'
p4092
aS'A6119'
p4093
aS'673'
p4094
aS'Norman McDonald RICHMOND'
p4095
aS'1960'
p4096
aa(lp4097
S'888150'
p4098
aS'A6126'
p4099
aS'170'
p4100
aS'Nancy Glen and Hector Alan MACDONALD'
p4101
aS'1964'
p4102
aa(lp4103
S'890224'
p4104
aS'A6122'
p4105
aS'1268'
p4106
aS'Submarines landing between Darwin and Arnhem Land (Film 17 metre 76)'
p4107
aS'1961'
p4108
aa(lp4109
S'892993'
p4110
aS'A6126'
p4111
aS'197'
p4112
aS'John Kurt KAISER'
p4113
aS'1955'
p4114
aa(lp4115
S'893254'
p4116
aS'A6119'
p4117
aS'719'
p4118
aS'Tom NELSON. Volume 1'
p4119
aS'1957'
p4120
aa(lp4121
S'893890'
p4122
aS'A6126'
p4123
aS'184'
p4124
aS'John Alcorn DILLON'
p4125
aS'1961'
p4126
aa(lp4127
S'906163'
p4128
aS'A1533'
p4129
aS'1955/4765'
p4130
aS'Czechoslovakian Consulate - whereabouts enquiries and policy on same.'
p4131
aS'1952'
p4132
aa(lp4133
S'913440'
p4134
aS'A816'
p4135
aS'19/322/24'
p4136
aS'Command organisation in the Middle East. File number 1.'
p4137
aS'1952'
p4138
aa(lp4139
S'921221'
p4140
aS'A816'
p4141
aS'14/301/677'
p4142
aS'Review of ANZAM planning by United States Joint Chiefs of Staff'
p4143
aS'1956'
p4144
aa(lp4145
S'926537'
p4146
aS'A816'
p4147
aS'11/301/664'
p4148
aS'JIC papers - exchange of information'
p4149
aS'1949'
p4150
aa(lp4151
S'929627'
p4152
aS'D174'
p4153
aS'H5410/4/5'
p4154
aS'Project Ikara -  Guidance System E C M'
p4155
aS'1964'
p4156
aa(lp4157
S'943198'
p4158
aS'A6119'
p4159
aS'796'
p4160
aS'Frances Ada GLUCK (aka Garrett, aka Bernie) nee Scott, Volume 3 [125 pages - 115 of these contain exemptions]'
p4161
aS'1950'
p4162
aa(lp4163
S'943199'
p4164
aS'A6119'
p4165
aS'797'
p4166
aS'Frances Ada GLUCK (aka Garrett, aka Bernie) nee Scott, Volume 4 [255 pages - 154 of these contain exemptions]'
p4167
aS'1959'
p4168
aa(lp4169
S'943206'
p4170
aS'A6119'
p4171
aS'804'
p4172
aS'OLLIER, Rose Marie Volume 5'
p4173
aS'1958'
p4174
aa(lp4175
S'943942'
p4176
aS'A6119'
p4177
aS'815'
p4178
aS'Judah WATEN volume 4'
p4179
aS'1961'
p4180
aa(lp4181
S'947261'
p4182
aS'A816'
p4183
aS'11/301/881'
p4184
aS'Relationship of Quintel Organisation to Five Power Planners Organisation'
p4185
aS'1954'
p4186
aa(lp4187
S'947263'
p4188
aS'A816'
p4189
aS'11/301/870'
p4190
aS'Sixth Quinpartite Intelligence Conference'
p4191
aS'1954'
p4192
aa(lp4193
S'967475'
p4194
aS'J25'
p4195
aS'1958/11086'
p4196
aS'European Permanent Admissions - Landing Permits - ASIO Lists, Queensland'
p4197
aS'1958'
p4198
aa(lp4199
S'967477'
p4200
aS'J25'
p4201
aS'1958/11103'
p4202
aS'European Permanent Admissions - Landing Permits - ASIO Lists, Queensland'
p4203
aS'1959'
p4204
aa(lp4205
S'976300'
p4206
aS'A6122'
p4207
aS'1319'
p4208
aS'United Nations Association, Western Australia'
p4209
aS'1962'
p4210
aa(lp4211
S'993810'
p4212
aS'A6122'
p4213
aS'1355'
p4214
aS'CPA Interest in Journalists ( CPA Activity Amoung Journalists) Volume 1 Part 2'
p4215
aS'1970'
p4216
aa(lp4217
S'993811'
p4218
aS'A6122'
p4219
aS'1356'
p4220
aS'CPA [Communist Party of Australia] - Interest in and use of the media - Volume 1'
p4221
aS'1968'
p4222
aa(lp4223
S'1006995'
p4224
aS'A6119'
p4225
aS'926'
p4226
aS'NEILL, Anne Miscellaneous Part 1'
p4227
aS'1961'
p4228
aa(lp4229
S'1006998'
p4230
aS'A6119'
p4231
aS'932'
p4232
aS'Anne NEILL. Supplement 2'
p4233
aS'1958'
p4234
aa(lp4235
S'1009839'
p4236
aS'A1838'
p4237
aS'2451/1/2 PART 11'
p4238
aS'SEATO - Review of Organization'
p4239
aS'1980'
p4240
aa(lp4241
S'1010702'
p4242
aS'A1838'
p4243
aS'TS175/11/20/8 PART 1'
p4244
aS'Middle East Intelligence and military situation reports'
p4245
aS'1957'
p4246
aa(lp4247
S'1010703'
p4248
aS'A1838'
p4249
aS'TS175/11/20/8 PART 2'
p4250
aS'Middle East Intelligence and military situation reports'
p4251
aS'1958'
p4252
aa(lp4253
S'1010704'
p4254
aS'A1838'
p4255
aS'TS181/1/4'
p4256
aS'Middle East. Joint Intelligence Weekly Review of Middle East'
p4257
aS'1961'
p4258
aa(lp4259
S'1010705'
p4260
aS'A1838'
p4261
aS'TS181/1/6'
p4262
aS'Middle East. Joint Intelligence Committee Reports'
p4263
aS'1960'
p4264
aa(lp4265
S'1014275'
p4266
aS'A9377'
p4267
aS'7'
p4268
aS'[Minutes of Cypher Security Committee, 29 Dec 1943 - 20 Nov 1945]'
p4269
aS'1945'
p4270
aa(lp4271
S'1014280'
p4272
aS'A9377'
p4273
aS'9'
p4274
aS'[The Australian Cypher 1946] Cypher typed'
p4275
aS'1946'
p4276
aa(lp4277
S'1018624'
p4278
aS'AWM282'
p4279
ag4268
aS'[Australian Embassy Saigon] JIO [Joint Intelligence Organisation] - Country Brief - North Vietnam'
p4280
aS'1972'
p4281
aa(lp4282
S'1025166'
p4283
aS'A1209'
p4284
aS'1957/4990 ATTACHMENT'
p4285
aS'Spare copies only [meeting of Commonwealth Prime Ministers, June - July 1957].'
p4286
aS'1957'
p4287
aa(lp4288
S'1045402'
p4289
aS'A1945'
p4290
aS'244/1/4'
p4291
aS'Chinese Communist and Viet Min amphibitious capabilities - TS1172.'
p4292
aS'1958'
p4293
aa(lp4294
S'1048159'
p4295
aS'AWM54'
p4296
aS'179/1/14 PART 4'
p4297
aS'[Chemical Warfare - General:] Chemical Warfare and Smoke Intelligence Bulletins, prepared by General Headquarters India, General Staff Branch, MI Directorate, Meerut [Part 4 of 7]'
p4298
aS'1945'
p4299
aa(lp4300
S'1066614'
p4301
aS'AWM54'
p4302
aS'244/2/1'
p4303
aS'[Demolitions - Schemes:] Demolition Plans: Brisbane Fortress Area, Belt "A"'
p4304
aS'1945'
p4305
aa(lp4306
S'1066660'
p4307
aS'AWM54'
p4308
aS'244/2/26 PART 9'
p4309
aS'[Demolitions - Schemes:] Operation Demolition Plan: Volunteer Defence Corps - Sketches and maps for demolition plans, Queensland and Victoria [Part 9 of 15]  [Oversize item]'
p4310
aS'1945'
p4311
aa(lp4312
S'1066677'
p4313
aS'AWM54'
p4314
aS'244/2/2'
p4315
aS'[Demolitions - Schemes:] Demolition Plans: Brisbane Fortress Area, Belt "B"'
p4316
aS'1945'
p4317
aa(lp4318
S'1066679'
p4319
aS'AWM54'
p4320
aS'244/2/3'
p4321
aS'[Demolitions - Schemes:] Demolition Plans: Brisbane Fortress Area, Belt "C"'
p4322
aS'1945'
p4323
aa(lp4324
S'1066680'
p4325
aS'AWM54'
p4326
aS'244/2/4'
p4327
aS'[Demolitions - Schemes:] Demolition Plans: Brisbane Fortress Area, Belt "D"'
p4328
aS'1945'
p4329
aa(lp4330
S'1066681'
p4331
aS'AWM54'
p4332
aS'244/2/5'
p4333
aS'[Demolitions - Schemes:] Demolition Plans: Brisbane Fortress Area, Belt "E"'
p4334
aS'1945'
p4335
aa(lp4336
S'1066682'
p4337
aS'AWM54'
p4338
aS'244/2/6'
p4339
aS'[Demolitions - Schemes:] Demolition Plans: Brisbane Fortress Area, Belt "F"'
p4340
aS'1945'
p4341
aa(lp4342
S'1066683'
p4343
aS'AWM54'
p4344
aS'244/2/7'
p4345
aS'[Demolitions - Schemes:] Demolition Plans: Brisbane Fortress Area, Belt "G"'
p4346
aS'1945'
p4347
aa(lp4348
S'1066685'
p4349
aS'AWM54'
p4350
aS'244/2/8'
p4351
aS'[Demolitions - Schemes:] Demolition Plans: Victoria Bridge, Brisbane Fortress Area, Belt "G", 17 Dec 1942'
p4352
aS'1942'
p4353
aa(lp4354
S'1066686'
p4355
aS'AWM54'
p4356
aS'244/2/9'
p4357
aS'[Demolitions - Schemes:] Demolition Plans: Brisbane Fortress Area, Belt "G"'
p4358
aS'1945'
p4359
aa(lp4360
S'1066687'
p4361
aS'AWM54'
p4362
aS'244/2/10 PART 1'
p4363
aS'[Demolitions - Schemes:] Appendix IV to report on demolition of Grey St Bridge, Brisbane Fortress Area, Belt "G" [Part 1 of 2]'
p4364
aS'1942'
p4365
aa(lp4366
S'1066688'
p4367
aS'AWM54'
p4368
aS'244/2/10 PART 2'
p4369
aS'[Demolitions - Schemes:] Demolition of Grey St Bridge, Brisbane Fortress Area, Belt "G", 17 Dec 1942 [Part 1 of 2]'
p4370
aS'1942'
p4371
aa(lp4372
S'1066689'
p4373
aS'AWM54'
p4374
aS'244/2/11'
p4375
aS'[Demolitions - Schemes:] Demolition - Albert Railway Bridge, Indooroopilly, Brisbane Fortress Area, Belt "G", Jan 1943'
p4376
aS'1943'
p4377
aa(lp4378
S'1066690'
p4379
aS'AWM54'
p4380
aS'244/2/12'
p4381
aS'[Demolitions - Schemes:] Demolition - Indooroopilly Toll Bridge, Brisbane Fortress Area, Belt "G", 2 Feb 1943'
p4382
aS'1943'
p4383
aa(lp4384
S'1066691'
p4385
aS'AWM54'
p4386
aS'244/2/13'
p4387
aS'[Demolitions - Schemes:] Demolition Plans: Brisbane Fortress Area, Belt "H"'
p4388
aS'1945'
p4389
aa(lp4390
S'1066692'
p4391
aS'AWM54'
p4392
aS'244/2/14'
p4393
aS'[Demolitions - Schemes:] Demolition Plans: Brisbane Fortress Area, Belt "J"'
p4394
aS'1945'
p4395
aa(lp4396
S'1066701'
p4397
aS'AWM54'
p4398
aS'244/2/15'
p4399
aS'[Demolitions - Schemes:] Demolition Plans: Brisbane Fortress Area, Belt "K"'
p4400
aS'1945'
p4401
aa(lp4402
S'1066703'
p4403
aS'AWM54'
p4404
aS'244/2/16'
p4405
aS'[Demolitions - Schemes:] Demolition Plans: Brisbane Fortress Area, Belt "L"'
p4406
aS'1945'
p4407
aa(lp4408
S'1066705'
p4409
aS'AWM54'
p4410
aS'244/2/17'
p4411
aS'[Demolitions - Schemes:] Demolition Plans: Brisbane Fortress Area, Belt "M"'
p4412
aS'1945'
p4413
aa(lp4414
S'1066706'
p4415
aS'AWM54'
p4416
aS'244/2/18'
p4417
aS'[Demolitions - Schemes:] Demolition Plans: Hornibrook Highway, Qld [Oversize item]'
p4418
aS'1945'
p4419
aa(lp4420
S'1066707'
p4421
aS'AWM54'
p4422
aS'244/2/19'
p4423
aS'[Demolitions - Schemes:] Demolition Schedule Queensland: Road Block Mines, 2 Corps Engineer Officers'
p4424
aS'1945'
p4425
aa(lp4426
S'1066711'
p4427
aS'AWM54'
p4428
aS'244/2/21'
p4429
aS'[Demolitions - Schemes:] Schedule of major demolitions: Demolition schedule, NSW, jetties'
p4430
aS'1942'
p4431
aa(lp4432
S'1066713'
p4433
aS'AWM54'
p4434
aS'244/2/22'
p4435
aS'[Demolitions - Schemes:] Bridges in New South Wales - List of explosives and accessories required, Jun 1942'
p4436
aS'1942'
p4437
aa(lp4438
S'1066715'
p4439
aS'AWM54'
p4440
aS'244/2/23'
p4441
aS'[Demolitions - Schemes:] Demolition Plan: Victoria, Eastern Area [Oversize item]'
p4442
aS'1945'
p4443
aa(lp4444
S'1066716'
p4445
aS'AWM54'
p4446
aS'244/2/24'
p4447
aS'[Demolitions - Schemes:] Demolition Plan: Victoria, Western Area [Oversize item]'
p4448
aS'1945'
p4449
aa(lp4450
S'1066718'
p4451
aS'AWM54'
p4452
aS'244/2/25'
p4453
aS'[Demolitions - Schemes:] NSW State War Effort, Co-ordination Committee: Demolitions and denial of resources to the enemy'
p4454
aS'1945'
p4455
aa(lp4456
S'1066776'
p4457
aS'AWM54'
p4458
aS'244/2/29 PART 1'
p4459
aS'[Demolitions - Schemes:] Plans of bridges in the event of bridge demolitions, north and south coast of NSW and northern towns of NSW [Part 1 of 2]'
p4460
aS'1945'
p4461
aa(lp4462
S'1066777'
p4463
aS'AWM54'
p4464
aS'244/2/29 PART 2'
p4465
aS'[Demolitions - Schemes:] Plans of bridges in the event of bridge demolitions, north and south coast of NSW [Part 2 of 2]'
p4466
aS'1945'
p4467
aa(lp4468
S'1066778'
p4469
aS'AWM54'
p4470
aS'244/2/30'
p4471
aS'[Demolitions - Schemes:] Demolition Plan: South Australia - Forward Area Schedule (bridges and jetties); Outports Schedule (jetties); Oil Installation Schedule; Dredges and Barges Schedule'
p4472
aS'1945'
p4473
aa(lp4474
S'1066784'
p4475
aS'AWM54'
p4476
aS'244/2/38'
p4477
aS'[Demolitions - Schemes:] Headquarters Victoria Garrision Brigade: Operational demolitions'
p4478
aS'1945'
p4479
aa(lp4480
S'1066803'
p4481
aS'AWM54'
p4482
aS'244/2/41'
p4483
aS"[Demolitions - Schemes:] Demolition Plan: Road bridge - Richmond River at Casino, Tween River at Byangum, Richmond River at Coraki, Tweed River at Murwillumbah and Barney's Point"
p4484
aS'1945'
p4485
aa(lp4486
S'1066805'
p4487
aS'AWM54'
p4488
aS'244/2/43'
p4489
aS'[Demolitions - Schemes:] Emergency demolition of Bulk Oil Installation Vacuum Oil Company Pty Ltd, Wickham, Newcastle NSW; Draft scheme for denial to the enemy, Bulk oil installations at Balmain, Sydney, Atlantic Union Oil Company Ltd'
p4490
aS'1945'
p4491
aa(lp4492
S'1066813'
p4493
aS'AWM54'
p4494
aS'244/2/47'
p4495
aS'[Demolitions - Schemes:] Plans for the destruction of Ocean Terminal Petroleum Depots, Brisbane'
p4496
aS'1942'
p4497
aa(lp4498
S'1066814'
p4499
aS'AWM54'
p4500
aS'244/2/48'
p4501
aS'[Demolitions - Schemes:] Scorched Earth Policy in respect of electricity systems - notes on policy and methods of destructions, 27 May 1943'
p4502
aS'1943'
p4503
aa(lp4504
S'1066818'
p4505
aS'AWM54'
p4506
aS'244/3/1'
p4507
aS'[Demolitions - Preparation:] 2nd Australian Corps: Schedule of major demolitions, May 1942'
p4508
aS'1942'
p4509
aa(lp4510
S'1066820'
p4511
aS'AWM54'
p4512
aS'244/3/2'
p4513
aS'[Demolitions - Preparation:] Schedule of progress - major bridge demolitions'
p4514
aS'1945'
p4515
aa(lp4516
S'1066822'
p4517
aS'AWM54'
p4518
aS'244/3/3'
p4519
aS'[Demolitions - Preparation:] Report on demolition plan for road bridge over Minnamurra River, and the Nowra Area. Reconnaissance carried out by Capt Carmicheal'
p4520
aS'1942'
p4521
aa(lp4522
S'1066824'
p4523
aS'AWM54'
p4524
aS'244/3/4'
p4525
aS'[Demolitions - Preparation:] Schedule of demolitions - Aerodromes and Air Bases beyond Australia'
p4526
aS'1941'
p4527
aa(lp4528
S'1067011'
p4529
aS'A6122'
p4530
aS'1427'
p4531
aS"Correspondence between the Director General of ASIO and the Prime Minister relating to 'The Case' and the Petrovs"
p4532
aS'1956'
p4533
aa(lp4534
S'1067017'
p4535
aS'A6119'
p4536
aS'1080'
p4537
aS'CLARKE, Duncan Haig. Supplement 1'
p4538
aS'1959'
p4539
aa(lp4540
S'1098119'
p4541
aS'A6119'
p4542
aS'1072'
p4543
aS'NOVIKOFF, Nicholas Victor [This item contains 1 page numbered 98 which contains exemptions. Pages 1-97 are on A6119, item 631]'
p4544
aS'1962'
p4545
aa(lp4546
S'1101063'
p4547
aS'A6126'
p4548
aS'340'
p4549
aS'Export of strategic metals from Nauru. Volume 1'
p4550
aS'1963'
p4551
aa(lp4552
S'1108418'
p4553
aS'A6119'
p4554
aS'1155'
p4555
aS'BACON, Kathleen Mary ( aka Olive nee CALLAGHAN ) Volume 3'
p4556
aS'1970'
p4557
aa(lp4558
S'1109489'
p4559
aS'A6119'
p4560
aS'1131'
p4561
aS'Rex Alfred MORTIMER. Volume 1'
p4562
aS'1956'
p4563
aa(lp4564
S'1109773'
p4565
aS'A6119'
p4566
aS'1099'
p4567
aS'Reverend Rex Collis Mathias'
p4568
aS'1962'
p4569
aa(lp4570
S'1119212'
p4571
aS'A6122'
p4572
aS'803'
p4573
aS"CPA [Communist Party of Australia] (NSW) Southern Miners' Branch"
p4574
aS'1957'
p4575
aa(lp4576
S'1119707'
p4577
aS'A6119'
p4578
aS'1356/REFERENCE COPY'
p4579
aS'RAVLICH, Ante'
p4580
aS'1960'
p4581
aa(lp4582
S'1121876'
p4583
aS'A6122'
p4584
aS'614'
p4585
aS'Communist Party of Australia - Branches Victoria - Bendigo branch'
p4586
aS'1954'
p4587
aa(lp4588
S'1132063'
p4589
aS'A7359'
p4590
aS'BOX 13/63'
p4591
aS'Organisation of British Security Service'
p4592
aS'1963'
p4593
aa(lp4594
S'1132219'
p4595
aS'A7359'
p4596
aS'BOX 10/13'
p4597
aS'Report by [portion of title exempt] on the recommendation of a security service of the Commonwealth of Australia after the termination of hostilities (together with comment on the present organisation of the Commonwealth Security Service) 22.9.44'
p4598
aS'1944'
p4599
aa(lp4600
S'1132740'
p4601
aS'A7359'
p4602
aS'BOX 10/14'
p4603
aS'[Supplementary questions re British Security Service] [TITLE EXEMPT]'
p4604
aS'1944'
p4605
aa(lp4606
S'1134524'
p4607
aS'A6706'
p4608
aS'34'
p4609
aS'Correspondence between Australian Prime Ministers (Menzies/Holt) and Heads of other Governments: Indonesia'
p4610
aS'1966'
p4611
aa(lp4612
S'1135183'
p4613
aS'A9559'
p4614
ag310
aS'Typex Machine MK 22. General and technical information. (BID/01/7 Volume 1. Copy no 378)'
p4615
aS'1954'
p4616
aa(lp4617
S'1138526'
p4618
aS'A1209'
p4619
aS'1963/6286'
p4620
aS'[Title Exempt]'
p4621
aS'1963'
p4622
aa(lp4623
S'1140232'
p4624
aS'A6119'
p4625
aS'1412'
p4626
aS'Joyce Enid CLARKE  - Volume 1'
p4627
aS'1963'
p4628
aa(lp4629
S'1141884'
p4630
aS'A1209'
p4631
aS'1961/181'
p4632
aS'SEATO - Report of 6th Intelligence Committee meeting, Bangkok, December 1960'
p4633
aS'1961'
p4634
aa(lp4635
S'1141905'
p4636
aS'A1209'
p4637
aS'1961/311 PART 1'
p4638
aS'Main trends in Soviet capabilities and policies 1960-65 ( ) [Title partially exempt]'
p4639
aS'1969'
p4640
aa(lp4641
S'1142491'
p4642
aS'A1209'
p4643
aS'1958/5150'
p4644
aS'Middle East - JIC intelligence summaries 1958'
p4645
aS'1958'
p4646
aa(lp4647
S'1145095'
p4648
aS'A6119'
p4649
aS'1421'
p4650
aS'HEALY, Michael aka McCRACKEN, Francis, Volume 3 [6 pages - all of these contain exemptions]'
p4651
aS'1963'
p4652
aa(lp4653
S'1163770'
p4654
aS'A6119'
p4655
aS'1494'
p4656
aS'BURNS, Geordie aka Gilbert aka George [This item contains 2 pages numbered 62 and 63, both of which contain exemptions. Pages 1-61 are on A6119, item 218]'
p4657
aS'1963'
p4658
aa(lp4659
S'1171839'
p4660
aS'A5799'
p4661
aS'14/1958'
p4662
aS'Australia, New Zealand and the US - Military talks on Indonesia [Contains folio notice advice only]'
p4663
aS'1958'
p4664
aa(lp4665
S'1173015'
p4666
aS'A1838'
p4667
aS'699/1/4'
p4668
aS'Australian, New Zealand and United States talks (1963) on security situation in South West Pacific'
p4669
aS'1963'
p4670
aa(lp4671
S'1173747'
p4672
aS'A6122'
p4673
aS'83'
p4674
aS'Cabin 12, administration - Personal correspondence to Vladimir and Evdokia PETROV'
p4675
aS'1956'
p4676
aa(lp4677
S'1174345'
p4678
aS'A5799'
p4679
aS'4/1961'
p4680
aS'Theatre estimate to be used in the development of MPO plan 6/61 [and supplement no. 1]'
p4681
aS'1961'
p4682
aa(lp4683
S'1178998'
p4684
aS'A6126'
p4685
aS'612'
p4686
aS'WOLF, Ruth [3 pages - all of these contain exemptions]'
p4687
aS'1963'
p4688
aa(lp4689
S'1184093'
p4690
aS'A1533'
p4691
aS'1956/187'
p4692
aS'Alleged smuggling of goods and forged currency - Sydney. THOMPSON, Lachlan Joseph and others'
p4693
aS'1959'
p4694
aa(lp4695
S'1184144'
p4696
aS'A1533'
p4697
aS'1956/1470'
p4698
aS'[Modified title: CIS co-operation with ASIO - complaint regarding SJ MARUZEWSKI, aka MARUE]'
p4699
aS'1956'
p4700
aa(lp4701
S'1184210'
p4702
aS'A1533'
p4703
aS'1956/1934 PART A'
p4704
aS'Currency - Miscellaneous offenders'
p4705
aS'1976'
p4706
aa(lp4707
S'1184507'
p4708
aS'A1533'
p4709
aS'1954/1099'
p4710
aS'Office seals'
p4711
aS'1961'
p4712
aa(lp4713
S'1184508'
p4714
aS'A1533'
p4715
aS'1953/1010'
p4716
aS'Police training classes for police officers and investigators all states except New South Wales'
p4717
aS'1968'
p4718
aa(lp4719
S'1328060'
p4720
aS'A1209'
p4721
aS'1964/6040 PART 1'
p4722
aS'Deployment of Australian troops in Malaysia'
p4723
aS'1964'
p4724
aa(lp4725
S'1335432'
p4726
aS'A1209'
p4727
aS'1962/3602'
p4728
aS'Disarmament - NATO Council discussions'
p4729
aS'1964'
p4730
aa(lp4731
S'1340587'
p4732
aS'A1533'
p4733
aS'1957/2081'
p4734
aS'Counterfeit US currency passed in Curacao'
p4735
aS'1968'
p4736
aa(lp4737
S'1340608'
p4738
aS'A1533'
p4739
aS'1959/446 PART 1'
p4740
aS'Commonwealth Bank of Australia - Exchange Control - Sustenance remittances'
p4741
aS'1966'
p4742
aa(lp4743
S'1340616'
p4744
aS'A1533'
p4745
aS'1959/382'
p4746
aS'Security of official documents'
p4747
aS'1974'
p4748
aa(lp4749
S'1340632'
p4750
aS'A1533'
p4751
aS'1957/3549'
p4752
aS'FALLIS, Herbert Elmer - Alleged counterfeiting of US currency'
p4753
aS'1959'
p4754
aa(lp4755
S'1340660'
p4756
aS'A6126'
p4757
aS'662'
p4758
aS'BALZI, Gildo'
p4759
aS'1800'
p4760
aa(lp4761
S'1342365'
p4762
aS'A4940'
p4763
aS'C2617'
p4764
aS'Australian Expeditions to Antarctic Continent - Policy'
p4765
aS'1961'
p4766
aa(lp4767
S'1353743'
p4768
aS'A9108'
p4769
aS'ROLL 16/23'
p4770
aS'Democratic Republic of Vietnam - Organisations abroad'
p4771
aS'1952'
p4772
aa(lp4773
S'1363488'
p4774
aS'A6122'
p4775
aS'1566'
p4776
aS'Employee organisations - Australian Federated Ironworkers Association, NSW, Volume 5'
p4777
aS'1963'
p4778
aa(lp4779
S'1363489'
p4780
aS'A6122'
p4781
aS'1567'
p4782
aS'CPA Branches, NSW - Australian Iron and Steel, South Coast, Volume 1'
p4783
aS'1957'
p4784
aa(lp4785
S'1373299'
p4786
aS'A3092'
p4787
aS'201/7/1 PART 2B'
p4788
aS'US defence policy'
p4789
aS'1960'
p4790
aa(lp4791
S'1373870'
p4792
aS'A7936'
p4793
aS'B/1/1 PART 1'
p4794
aS'Establishment - Original report'
p4795
aS'1951'
p4796
aa(lp4797
S'1373872'
p4798
aS'A7936'
p4799
aS'B/2/1'
p4800
aS'Security procedure and instructions [portion of title exempt]'
p4801
aS'1963'
p4802
aa(lp4803
S'1373876'
p4804
aS'A7936'
p4805
aS'B/2/2'
p4806
aS'Relates to ASIS [imposed title, original item title exempt]'
p4807
aS'1985'
p4808
aa(lp4809
S'1373884'
p4810
aS'A7936'
p4811
aS'B/2/2A'
p4812
aS'File amendments [portion of title exempt]'
p4813
aS'1979'
p4814
aa(lp4815
S'1373889'
p4816
aS'A7936'
p4817
aS'B/4/8'
p4818
aS'Relates to ASIS [imposed title, original item title exempt]'
p4819
aS'1960'
p4820
aa(lp4821
S'1373893'
p4822
aS'A7936'
p4823
aS'B/5/8 PART 1'
p4824
aS'ASIS Financial file 1955-1956'
p4825
aS'1957'
p4826
aa(lp4827
S'1373898'
p4828
aS'A7936'
p4829
aS'B/5/9'
p4830
aS'Estimates 1956-1957 [portion of title exempt]'
p4831
aS'1956'
p4832
aa(lp4833
S'1373901'
p4834
aS'A7936'
p4835
aS'B/5/10'
p4836
aS'Estimates 1957-1958'
p4837
aS'1957'
p4838
aa(lp4839
S'1373905'
p4840
aS'A7936'
p4841
aS'B/8/2'
p4842
aS'Relates to ASIS [imposed title, original item title exempt]'
p4843
aS'1957'
p4844
aa(lp4845
S'1373906'
p4846
aS'A7936'
p4847
aS'B/9/1'
p4848
aS'Relates to ASIS [imposed title, original item title exempt]'
p4849
aS'1953'
p4850
aa(lp4851
S'1373910'
p4852
aS'A7936'
p4853
aS'B/9/3'
p4854
aS'Unattached list [portion of title exempt]'
p4855
aS'1969'
p4856
aa(lp4857
S'1373913'
p4858
aS'A7936'
p4859
aS'B/19/1 PART 2'
p4860
aS'Codewords and nicknames'
p4861
aS'1977'
p4862
aa(lp4863
S'1379751'
p4864
aS'A1196'
p4865
aS'22/501/138 PART 1'
p4866
aS'Target studies - [Title modified]'
p4867
aS'1959'
p4868
aa(lp4869
S'1385057'
p4870
aS'A3092'
p4871
aS'221/10/1/6'
p4872
aS'[Title exempt]'
p4873
aS'1958'
p4874
aa(lp4875
S'1389144'
p4876
aS'A1838'
p4877
aS'528/1/7 PART 1'
p4878
aS'Hong Kong - Civil disturbances'
p4879
aS'1966'
p4880
aa(lp4881
S'1494793'
p4882
aS'A6119'
p4883
aS'1808'
p4884
aS'GILLEN, James Patrick - Supp 1'
p4885
aS'1956'
p4886
aa(lp4887
S'1500804'
p4888
aS'A1838'
p4889
aS'3006/4/3 PART 22'
p4890
aS'Indonesia - Relations with Portuguese Timor'
p4891
aS'1977'
p4892
aa(lp4893
S'1501059'
p4894
aS'A1838'
p4895
aS'3006/6/6'
p4896
aS'South East Asia intra regional relations - Thailand - Relations with Singapore'
p4897
aS'1978'
p4898
aa(lp4899
S'1505594'
p4900
aS'A1838'
p4901
aS'3027/10/6 PART 2'
p4902
aS'Malaysia - Australia relations - Australian representation'
p4903
aS'1978'
p4904
aa(lp4905
S'1505717'
p4906
aS'A1838'
p4907
aS'3038/2/1 PART 24'
p4908
aS'Portuguese Timor - Political and General'
p4909
aS'1982'
p4910
aa(lp4911
S'8844797'
p4912
aS'P3'
p4913
aS'T1965/0714'
p4914
aS'Van Zelm, Rudolf'
p4915
aS'1966'
p4916
aa(lp4917
S'1509102'
p4918
aS'A1838'
p4919
aS'3034/9/1 PART 6'
p4920
aS'Indonesia - Activity in the United Nations'
p4921
aS'1979'
p4922
aa(lp4923
S'1509533'
p4924
aS'A1838'
p4925
aS'3034/12/4 PART 5'
p4926
aS'Indonesia - Monthly reports - Services Attache, Djakarta [307pp]'
p4927
aS'1978'
p4928
aa(lp4929
S'1510532'
p4930
aS'A1838'
p4931
aS'3107/38/14 PART 11'
p4932
aS'China - Relations with Australia - Briefing material'
p4933
aS'1978'
p4934
aa(lp4935
S'1511471'
p4936
aS'A1838'
p4937
aS'3107/33/1 PART 35'
p4938
aS'China - Foreign policy - General'
p4939
aS'1977'
p4940
aa(lp4941
S'1512129'
p4942
aS'A1838'
p4943
aS'3103/10/20/1 PART 15'
p4944
aS'Japan - Relations with Australia - Basic Treaty of friendship and cooperation'
p4945
aS'1976'
p4946
aa(lp4947
S'1512131'
p4948
aS'A1838'
p4949
aS'3103/10/20/1 PART 16'
p4950
aS'Japan - Relations with Australia - Basic Treaty of friendship and cooperation'
p4951
aS'1976'
p4952
aa(lp4953
S'1512132'
p4954
aS'A1838'
p4955
aS'3103/10/20/1 PART 17'
p4956
aS'Japan - Relations with Australia - Basic Treaty of friendship and cooperation'
p4957
aS'1976'
p4958
aa(lp4959
S'1512397'
p4960
aS'A1838'
p4961
aS'3103/11/90 PART 19'
p4962
aS'Japan - Relations with South Korea'
p4963
aS'1976'
p4964
aa(lp4965
S'1515905'
p4966
aS'A1533'
p4967
aS'1956/1886'
p4968
aS'KAPUR, Sant Singh [0.5cm]'
p4969
aS'1961'
p4970
aa(lp4971
S'1515911'
p4972
aS'A1533'
p4973
aS'1956/2059'
p4974
aS'SPONG, Lionel [4 pages]'
p4975
aS'1966'
p4976
aa(lp4977
S'1515939'
p4978
aS'A1533'
p4979
aS'1953/350'
p4980
aS'Police cooperation - Great Britain [2 pages]'
p4981
aS'1953'
p4982
aa(lp4983
S'1515962'
p4984
aS'A1533'
p4985
aS'1956/2986'
p4986
aS"Joint intelligence bureau, Victoria Barracks - Theft of staff's money [12 pages]"
p4987
aS'1956'
p4988
aa(lp4989
S'1526526'
p4990
aS'A6122'
p4991
aS'1613'
p4992
aS'Security Personnel Vetting Department of the Interior - DeSMET, Jules Albert'
p4993
aS'1954'
p4994
aa(lp4995
S'1526907'
p4996
aS'A6119'
p4997
aS'1847'
p4998
aS'COLEMAN, Alfred Edgar - Volume 2'
p4999
aS'1964'
p5000
aa(lp5001
S'1536025'
p5002
aS'A5954'
p5003
aS'865/4'
p5004
aS'[Establishment of an Australian Secret Service] - Modified plan 5 September 1951'
p5005
aS'1951'
p5006
aa(lp5007
S'1565455'
p5008
aS'A1945'
p5009
aS'143/1/4'
p5010
aS'Intelligence on Middle East (File No 3) [1cm]'
p5011
aS'1962'
p5012
aa(lp5013
S'1565703'
p5014
aS'A1945'
p5015
aS'248/7/14'
p5016
aS'Indonesia - Situation reports'
p5017
aS'1958'
p5018
aa(lp5019
S'1593052'
p5020
aS'A9108'
p5021
aS'ROLL 14/17'
p5022
aS'The civil service purge, UK [10 pages]'
p5023
aS'1951'
p5024
aa(lp5025
S'1593054'
p5026
aS'A9108'
p5027
aS'ROLL 14/26'
p5028
aS'Reports from security liaison office, Hong Kong [0.5cm]'
p5029
aS'1951'
p5030
aa(lp5031
S'1596194'
p5032
aS'A9108'
p5033
aS'ROLL 15/15'
p5034
aS'Political situation in Burma'
p5035
aS'1953'
p5036
aa(lp5037
S'1604137'
p5038
aS'MT929/1'
p5039
aS'V1957/35920'
p5040
aS'Paas, Hubert Joseph'
p5041
aS'1981'
p5042
aa(lp5043
S'1610564'
p5044
aS'A6126'
p5045
aS'883'
p5046
aS'Clark, Charles'
p5047
aS'1954'
p5048
aa(lp5049
S'1611269'
p5050
aS'MT1078/1'
p5051
aS'V1959/35173'
p5052
aS'Paas, Yvonne Marie'
p5053
aS'1962'
p5054
aa(lp5055
S'1724899'
p5056
aS'A1838'
p5057
aS'919/8/9 PART 24'
p5058
aS'United Nations - Disarmament - Prohibition of use of nuclear weapons resolution 1653 - Control of missile system SALT [Strategic Arms Limitation Talks]'
p5059
aS'1979'
p5060
aa(lp5061
S'1725233'
p5062
aS'A1838'
p5063
aS'383/4/1/4'
p5064
aS'Top secret douments - North Vietnam'
p5065
aS'1961'
p5066
aa(lp5067
S'1725371'
p5068
aS'A1838'
p5069
aS'663/4/7 PART 2'
p5070
aS'JIC and JIS programme of work'
p5071
aS'1963'
p5072
aa(lp5073
S'1725389'
p5074
aS'A1838'
p5075
aS'TS663/4/11 PART 2'
p5076
aS'JIC - Australian intelligence targets and priorities'
p5077
aS'1965'
p5078
aa(lp5079
S'1725390'
p5080
aS'A1838'
p5081
aS'TS663/4/11 PART 3'
p5082
aS'JIC - Australian intelligence targets and priorities'
p5083
aS'1968'
p5084
aa(lp5085
S'1725394'
p5086
aS'A1838'
p5087
aS'TS663/11'
p5088
aS'Intelligence conference Melbourne, November 1958 and Washington, 1962 and London, 1966'
p5089
aS'1967'
p5090
aa(lp5091
S'1728270'
p5092
aS'A1838'
p5093
aS'TS690/4/5 PART 6'
p5094
aS'JIC London reports'
p5095
aS'1975'
p5096
aa(lp5097
S'1728345'
p5098
aS'A1838'
p5099
aS'TS694/2/3 PART 5'
p5100
aS'Exchange of intelligence material with the United States of America policy'
p5101
aS'1964'
p5102
aa(lp5103
S'1728347'
p5104
aS'A1838'
p5105
aS'694/2/3 PART 6'
p5106
aS'Exchange of intelligence material with the United States of America policy'
p5107
aS'1977'
p5108
aa(lp5109
S'1728353'
p5110
aS'A1838'
p5111
aS'TS694/2/3/4 PART 1'
p5112
aS'[Modified title: Exchange of information]'
p5113
aS'1968'
p5114
aa(lp5115
S'1728355'
p5116
aS'A1838'
p5117
aS'TS694/2/3/4 PART 2'
p5118
aS'[Modified title: Exchange of information]'
p5119
aS'1969'
p5120
aa(lp5121
S'1728357'
p5122
aS'A1838'
p5123
aS'TS694/2/3/4 PART 3'
p5124
aS'[Modified title: Exchange of information]'
p5125
aS'1970'
p5126
aa(lp5127
S'1728358'
p5128
aS'A1838'
p5129
aS'TS694/2/3/4 PART 4'
p5130
aS'[Modified title: Exchange of information]'
p5131
aS'1970'
p5132
aa(lp5133
S'1728359'
p5134
aS'A1838'
p5135
aS'TS694/2/3/4 PART 5'
p5136
aS'[Modified title: Exchange of information]'
p5137
aS'1971'
p5138
aa(lp5139
S'1728363'
p5140
aS'A1838'
p5141
aS'TS694/2/3/4 PART 7'
p5142
aS'[Modified title: Exchange of information]'
p5143
aS'1973'
p5144
aa(lp5145
S'1728364'
p5146
aS'A1838'
p5147
aS'694/2/4 PART 4'
p5148
aS'[Modified title: Exchange of intelligence material with the United States of America] - Received from Washington'
p5149
aS'1969'
p5150
aa(lp5151
S'1728366'
p5152
aS'A1838'
p5153
aS'TS694/2/4 PART 5'
p5154
aS'[Modified title: Exchange of intelligence material with the United States of America] - Received from Washington'
p5155
aS'1971'
p5156
aa(lp5157
S'1728367'
p5158
aS'A1838'
p5159
aS'TS694/2/4 PART 6'
p5160
aS'[Modified title: Exchange of intelligence material with the United States of America] - Received from Washington'
p5161
aS'1972'
p5162
aa(lp5163
S'1728370'
p5164
aS'A1838'
p5165
aS'694/2/4/1 PART 1'
p5166
aS'[portion of title exempt] Intelligence Estimates [2cm]'
p5167
aS'1971'
p5168
aa(lp5169
S'1728371'
p5170
aS'A1838'
p5171
aS'694/2/4/1 PART 2'
p5172
aS'[portion of title exempt] Intelligence Estimates [0.5cm]'
p5173
aS'1984'
p5174
aa(lp5175
S'1728584'
p5176
aS'A1838'
p5177
aS'696/2/3 PART 2'
p5178
aS'Indonesia - Armed forces'
p5179
aS'1980'
p5180
aa(lp5181
S'1730703'
p5182
aS'A1838'
p5183
aS'TS3006/10/4 PART 3A'
p5184
aS'South East Asia intra regional relations - Malaysia/Singapore [3 pages]'
p5185
aS'1969'
p5186
aa(lp5187
S'1730914'
p5188
aS'A1838'
p5189
aS'3107/40/116'
p5190
aS'China - Relations with Thailand'
p5191
aS'1973'
p5192
aa(lp5193
S'1732894'
p5194
aS'A1838'
p5195
aS'TS666/65/14'
p5196
aS'Intelligence conference on China'
p5197
aS'1968'
p5198
aa(lp5199
S'1743659'
p5200
aS'A1945'
p5201
aS'10/1/34'
p5202
aS'JIB [Joint Intelligence Bureau] reports on military aircraft for Indonesia - Request for by the Minister of the Air [0.25cm]'
p5203
aS'1958'
p5204
aa(lp5205
S'1744458'
p5206
aS'A1838'
p5207
aS'69/1/4/13 PART 3'
p5208
aS'USSR [Union of Soviet Socialist Republics] - Relations with other countries - New Zealand'
p5209
aS'1979'
p5210
aa(lp5211
S'1745002'
p5212
aS'A1838'
p5213
aS'181/15/1 PART 7'
p5214
aS'Middle East - Palestine Liberation Organisation and Arab league - Representatin in Australia'
p5215
aS'1982'
p5216
aa(lp5217
S'1754919'
p5218
aS'A6980'
p5219
aS'S250156'
p5220
aS'Special screening of migrants from Italy - Mafia'
p5221
aS'1965'
p5222
aa(lp5223
S'1756106'
p5224
aS'A1838'
p5225
aS'694/2/3/4 PART 8'
p5226
aS'[Modified title: Exchange of information]'
p5227
aS'1973'
p5228
aa(lp5229
S'1756108'
p5230
aS'A1838'
p5231
aS'694/2/3/4 PART 9'
p5232
aS'[Modified title: Exchange of information]'
p5233
aS'1974'
p5234
aa(lp5235
S'1791483'
p5236
aS'A1945'
p5237
aS'248/1/5'
p5238
aS'Indications of communist preparations for early war in South East Asia - UK committee report'
p5239
aS'1959'
p5240
aa(lp5241
S'1798749'
p5242
aS'K279'
p5243
aS'1960/487 PART 1'
p5244
aS'WRE [Weapons Research Establishment] record of technical enquiries and information [Department of Works/Construction]'
p5245
aS'1962'
p5246
aa(lp5247
S'1798752'
p5248
aS'K279'
p5249
aS'1960/487 PART 2'
p5250
aS'WRE [Weapons Research Establishment] record of technical enquiries and information [Department of Works/Construction]'
p5251
aS'1963'
p5252
aa(lp5253
S'1798753'
p5254
aS'K279'
p5255
aS'1980/671 PART 1'
p5256
aS'Defence (Army) Swanbourne and Springhill - training facilities for SASR [Special Air Service Regiment] [Department of Works/Construction]'
p5257
aS'1982'
p5258
aa(lp5259
S'1798755'
p5260
aS'K279'
p5261
aS'1980/671 PART 2'
p5262
aS'Defence (Army) Swanbourne and Springhill - training facilities for SASR [Special Air Service Regiment] [Department of Works/Construction]'
p5263
aS'1986'
p5264
aa(lp5265
S'1798756'
p5266
aS'K279'
p5267
aS'1980/1192'
p5268
aS'Housing and Construction - OAT Working Party Report [Department of Works/Construction]'
p5269
aS'1981'
p5270
aa(lp5271
S'1798757'
p5272
aS'K279'
p5273
aS'1982/847'
p5274
aS'Defence (Army) - unit magazine at Swanbourne - siting board [Department of Works/Construction]'
p5275
aS'1982'
p5276
aa(lp5277
S'1803202'
p5278
aS'AWM193'
p5279
aS'32 PART 1'
p5280
aS'[Eastern Command "G" Branch records:] Anti sabotage: vulnerable points, 22/8/39 - 1/9/39 Part 1'
p5281
aS'1939'
p5282
aa(lp5283
S'1810624'
p5284
aS'A6119'
p5285
aS'2200'
p5286
aS'Geddes, Herbert Thomas - Volume 1 additional papers'
p5287
aS'1956'
p5288
aa(lp5289
S'1811164'
p5290
aS'A4624'
p5291
aS'NN'
p5292
aS'HMAS Leeuwin Tenders - Quarter ending 31/3/41'
p5293
aS'1941'
p5294
aa(lp5295
S'1811169'
p5296
aS'A4624'
p5297
aS'NN'
p5298
aS'HMAS Bribane Tenders - Quarter ending 30/6/42'
p5299
aS'1942'
p5300
aa(lp5301
S'1825924'
p5302
aS'A1945'
p5303
aS'83/1/12'
p5304
aS'The likelihood of global war up to mid 1963 [10 pages]'
p5305
aS'1958'
p5306
aa(lp5307
S'1826005'
p5308
aS'A1945'
p5309
aS'139/2/4'
p5310
aS'Release of Joint Intelligence Bureau [JIB] (M) reports and items to [remainder of title exempt]'
p5311
aS'1968'
p5312
aa(lp5313
S'1827011'
p5314
aS'A1945'
p5315
aS'249/1/6'
p5316
aS'SEATO - Study group on engineering workshops [1cm]'
p5317
aS'1957'
p5318
aa(lp5319
S'1827288'
p5320
aS'A1945'
p5321
aS'249/3/9'
p5322
aS'SEATO - Records of meetings of council representatives [2cms]'
p5323
aS'1961'
p5324
aa(lp5325
S'1828145'
p5326
aS'A1945'
p5327
aS'249/12/14'
p5328
aS'SEATO - Committee of Security Experts [4cms]'
p5329
aS'1961'
p5330
aa(lp5331
S'1828159'
p5332
aS'A1945'
p5333
aS'249/16/21'
p5334
aS'SEATO - Intelligence (10M) [3cm]'
p5335
aS'1964'
p5336
aa(lp5337
S'1869038'
p5338
aS'A1838'
p5339
aS'1605/145 PART 1'
p5340
aS'Immigration - Reciprocal social security agreement between Australia and Israel - Foreign relations - Aspects'
p5341
aS'1985'
p5342
aa(lp5343
S'1869039'
p5344
aS'A1838'
p5345
aS'1606/40'
p5346
aS'Asylum - [portion of title exempt]'
p5347
aS'1964'
p5348
aa(lp5349
S'1872067'
p5350
aS'A1838'
p5351
aS'1733/3/2 PART 2'
p5352
aS'Law of the sea - Delimitation - Australia - Indonesia [Timor]'
p5353
aS'1978'
p5354
aa(lp5355
S'1872069'
p5356
aS'A1838'
p5357
aS'1733/3/2 PART 4'
p5358
aS'Law of the sea - Delimitation - Australia - Indonesia [Timor]'
p5359
aS'1978'
p5360
aa(lp5361
S'1872070'
p5362
aS'A1838'
p5363
aS'1733/3/2 PART 5'
p5364
aS'Law of the sea - Delimitation - Australia - Indonesia [Timor]'
p5365
aS'1978'
p5366
aa(lp5367
S'1875388'
p5368
aS'A1838'
p5369
aS'694/2/3 PART 2'
p5370
aS'Exchange of intelligence material with the United States of America'
p5371
aS'1958'
p5372
aa(lp5373
S'1875481'
p5374
aS'AWM193'
p5375
aS'159 PART 2'
p5376
aS'[Eastern Command "G" Branch records:] Guarding of bridges, telephone exchanges, etc; Visual training in the AMF; Order of battle AMF; Aircraft recognition; etc [file G106]'
p5377
aS'1943'
p5378
aa(lp5379
S'1887170'
p5380
aS'A1838'
p5381
aS'1957/4/9 PART 1'
p5382
aS'ASIO - Relations with Department of Foreign Affairs - [remainder of file title withheld]'
p5383
aS'1970'
p5384
aa(lp5385
S'1887179'
p5386
aS'A1838'
p5387
aS'1957/5/11 PART 2'
p5388
aS'ASIO - [remainder of file title withheld]'
p5389
aS'1981'
p5390
aa(lp5391
S'1887182'
p5392
aS'A1838'
p5393
aS'1957/5/13 PART 2'
p5394
aS'Australian intelligence - [remainder of file title withheld]'
p5395
aS'1976'
p5396
aa(lp5397
S'1887642'
p5398
aS'A1838'
p5399
aS'3081/9/12'
p5400
aS'Papua New Guinea - Defence arrangements with Australia, ANZUK [Australia, New Zealand and United Kingdom] and SEATO [South East Asia Treaty Organisation]'
p5401
aS'1986'
p5402
aa(lp5403
S'1888003'
p5404
aS'A1838'
p5405
aS'3127/4/6 PART 1'
p5406
aS'Republic of Korea - Atomic energy'
p5407
aS'1978'
p5408
aa(lp5409
S'1896067'
p5410
aS'A6126'
p5411
aS'1026'
p5412
aS'Kay, Helen'
p5413
aS'1956'
p5414
aa(lp5415
S'1944948'
p5416
aS'A703'
p5417
aS'582/10/22'
p5418
aS'ABCA armies - Minutes of meeting of quadripartite working group on aviation [2cms]'
p5419
aS'1980'
p5420
aa(lp5421
S'2014910'
p5422
aS'A446'
p5423
aS'1984/78816'
p5424
aS'ADP - Investigations branch programs'
p5425
aS'1986'
p5426
aa(lp5427
S'3039722'
p5428
aS'A1209'
p5429
aS'1958/5718'
p5430
aS'[Portion of title exempt] JIB [Joint Intelligence Bureau] report 1954 [113pp]'
p5431
aS'1954'
p5432
aa(lp5433
S'3039934'
p5434
aS'A1209'
p5435
aS'1958/5838'
p5436
aS'Report on Joint Intelligence Bureau - May 1958 [31pp]'
p5437
aS'1958'
p5438
aa(lp5439
S'3039998'
p5440
aS'A1209'
p5441
aS'1958/5994 PART 1'
p5442
aS'[Modified title: Exchange of intelligence material] - Weekly intelligence summaries'
p5443
aS'1958'
p5444
aa(lp5445
S'3040000'
p5446
aS'A1209'
p5447
aS'1958/5994 PART 2'
p5448
aS'[Modified title: Exchange of intelligence material] - Weekly intelligence summaries [3cm]'
p5449
aS'1958'
p5450
aa(lp5451
S'3040003'
p5452
aS'A1209'
p5453
aS'1958/5994 PART 3'
p5454
aS'[Modified title: Exchange of intelligence material] - Weekly intelligence summaries'
p5455
aS'1958'
p5456
aa(lp5457
S'3040004'
p5458
aS'A1209'
p5459
aS'1958/5994 PART 4'
p5460
aS'[Modified title: Exchange of intelligence material] - Weekly intelligence summaries'
p5461
aS'1958'
p5462
aa(lp5463
S'3040005'
p5464
aS'A1209'
p5465
aS'1958/5994 PART 5'
p5466
aS'[Modified title: Exchange of intelligence material] - Weekly intelligence summaries'
p5467
aS'1958'
p5468
aa(lp5469
S'3040023'
p5470
aS'A1209'
p5471
aS'1958/6017'
p5472
aS'List of reports published by JIB [Joint Intelligence Bureau], Melbourne [3 cm]'
p5473
aS'1962'
p5474
aa(lp5475
S'3040149'
p5476
aS'A1209'
p5477
aS'1958/6130'
p5478
aS"The economic and political consequences of India's financial problems"
p5479
aS'1958'
p5480
aa(lp5481
S'3042310'
p5482
aS'A1209'
p5483
aS'1959/137'
p5484
aS'United States basic reference on Communist China [part of title exempt]'
p5485
aS'1959'
p5486
aa(lp5487
S'3042327'
p5488
aS'A1209'
p5489
aS'1959/154'
p5490
aS'Anti-communist resistance potential in the Sino-Soviet Bloc'
p5491
aS'1959'
p5492
aa(lp5493
S'3042561'
p5494
aS'A1209'
p5495
aS'1959/547 PART 2'
p5496
aS'Australian Intelligence Survey, JIB (M) 6/8, Issued May 1959, Copy No. 115'
p5497
aS'1959'
p5498
aa(lp5499
S'3042566'
p5500
aS'A1209'
p5501
aS'1959/547 PART 3'
p5502
aS'Australian Intelligence Survey, JIB (A) Report No 6/12, Issued Dec. 1963, Copy No. 5'
p5503
aS'1959'
p5504
aa(lp5505
S'3043925'
p5506
aS'A1209'
p5507
aS'1961/190'
p5508
aS"Proposal for meeting of officials prior to Prime Ministers' conference 1961"
p5509
aS'1961'
p5510
aa(lp5511
S'3045058'
p5512
aS'A1209'
p5513
aS'1964/6310'
p5514
aS'The outlook for North Vietnam [part of title exempt]'
p5515
aS'1964'
p5516
aa(lp5517
S'3045204'
p5518
aS'A1209'
p5519
aS'1964/6642'
p5520
aS'Prospects for Indonesia'
p5521
aS'1964'
p5522
aa(lp5523
S'3048341'
p5524
aS'F423'
p5525
aS'S58'
p5526
aS'UK Communications System for Far East and South East Asia - NT Site for proposed Relay Station'
p5527
aS'1970'
p5528
aa(lp5529
S'3053122'
p5530
aS'A1209'
p5531
aS'1968/9906'
p5532
aS'Western Samoa - Intelligence briefing - Memorandum - Joint Intelligence Bureau - New Zealand'
p5533
aS'1982'
p5534
aa(lp5535
S'3054045'
p5536
aS'A1209'
p5537
aS'1969/9036 PART 26'
p5538
aS'Malaysia/Singapore defence policy and administration arrangements'
p5539
aS'1969'
p5540
aa(lp5541
S'3055376'
p5542
aS'A1209'
p5543
aS'1976/103 PART 2'
p5544
aS'Interdepartmental committee on special problems of domestic violence'
p5545
aS'1976'
p5546
aa(lp5547
S'3110884'
p5548
aS'A452'
p5549
aS'1965/1613'
p5550
aS'Reports on West Irian [part of title exempt] - 1965/66 [4cm]'
p5551
aS'1965'
p5552
aa(lp5553
S'3111260'
p5554
aS'A452'
p5555
aS'1966/2447'
p5556
aS'West Irian - Reports from [part of title exempt], 1966 [3cms]'
p5557
aS'1966'
p5558
aa(lp5559
S'3123556'
p5560
aS'A452'
p5561
aS'1972/602'
p5562
aS'Inter-Departmental committee on internal security arrangements after self government - Papua New Guinea [3cms]'
p5563
aS'1972'
p5564
aa(lp5565
S'3123655'
p5566
aS'A452'
p5567
aS'1972/1726'
p5568
aS'Timor trough border negotiations [5cm]'
p5569
aS'1973'
p5570
aa(lp5571
S'3124430'
p5572
aS'A452'
p5573
aS'1973/2855'
p5574
aS'French Nuclear tests in the Pacific area [0.5cm]'
p5575
aS'1973'
p5576
aa(lp5577
S'3156038'
p5578
aS'A6119'
p5579
aS'2399'
p5580
aS'Alan Patrick ROBERTS - ASIO file - miscellaneous papers'
p5581
aS'1966'
p5582
aa(lp5583
S'3163354'
p5584
aS'A5882'
p5585
aS'CO567 PART 4'
p5586
aS'Law of the Sea - Application to Australia - 1971 - [5.5cm]'
p5587
aS'1972'
p5588
aa(lp5589
S'3287659'
p5590
aS'AWM269'
p5591
aS'B/4/2'
p5592
aS'[Records of Jeffrey Grey and Peter Dennis] Emergency and Confrontation - Source material: DFAT [Department of Foreign Affairs and Trade] A1838 File Series: 696/6/6 Part 1 - National Operations Committee Papers'
p5593
aS'1996'
p5594
aa(lp5595
S'3294016'
p5596
aS'A6119'
p5597
aS'2431'
p5598
aS'Elsie Violet LOCKE'
p5599
aS'1967'
p5600
aa(lp5601
S'3340059'
p5602
aS'A1838'
p5603
aS'1652/4/5 PART 1'
p5604
aS'CHOGRM [Commonwealth Heads of Government Regional Meeting] - Working group on terrorism'
p5605
aS'1978'
p5606
aa(lp5607
S'3352648'
p5608
aS'A1838'
p5609
aS'1500/1/24/2/9'
p5610
aS'Diplomatic representatives in Australia - Complaints from Embassies and Legations - Protection of diplomatic and consular premises - Srcko Blaz Rover - Yugoslav'
p5611
aS'1976'
p5612
aa(lp5613
S'3492833'
p5614
aS'A11583'
p5615
ag2134
aS'Imperial Conference 1926 - Memoranda and Papers - E Series - Papers Nos E95 - E140 (With subject index) [3cm]'
p5616
aS'1926'
p5617
aa(lp5618
S'3496040'
p5619
aS'A6122'
p5620
aS'1987'
p5621
aS'Spoiling Operations Australia - Media O [2pp]'
p5622
aS'1967'
p5623
aa(lp5624
S'3522903'
p5625
aS'A4854'
p5626
aS'VOL 30'
p5627
aS'Signed minutes of meetings of the Australian Capital Territory Advisory Council - Volume 30 - 19 Jan 1970 to 22 Jun 1970'
p5628
aS'1970'
p5629
aa(lp5630
S'4199164'
p5631
aS'A6283'
p5632
aS'28'
p5633
aS'Leading Government and Political Circles [Reference Copy]'
p5634
aS'1954'
p5635
aa(lp5636
S'30943275'
p5637
aS'A13075'
p5638
aS'17919/C'
p5639
aS'Decision No 17919 - [Title exempt] - Without Submission'
p5640
aS'1982'
p5641
aa(lp5642
S'60166243'
p5643
aS'A12933'
p5644
aS'328'
p5645
aS'Cabinet Paper No 328 : [portion of title exempt] -  Minister responsible : Mr Peacock (Foreign Affairs) - presented at Cabinet Meeting 3 May 1978 - Decision No 5230(Ad Hoc) - File No LC235'
p5646
aS'1978'
p5647
aa(lp5648
S'60166782'
p5649
aS'A13075'
p5650
aS'7666/IS'
p5651
aS'Cabinet Minute (Intelligence and Security Committee) - Decision No 7666(IS) - [Title exempt]'
p5652
aS'1979'
p5653
aa(lp5654
S'842957'
p5655
aS'A1838'
p5656
aS'TS1500/1/3/28 PART 6'
p5657
aS'USSR. Proposed resumption of diplomatic relations'
p5658
aS'1962'
p5659
aa(lp5660
S'424649'
p5661
aS'A6122'
p5662
aS'494'
p5663
aS'Epworth Hospital Branch. Communist Party of Australia'
p5664
aS'1949'
p5665
aa(lp5666
S'425486'
p5667
aS'A6122'
p5668
aS'580'
p5669
aS'CPA [Communist Party of Australia] NSW - Western District'
p5670
aS'1949'
p5671
aa(lp5672
S'426037'
p5673
aS'A6122'
p5674
aS'568'
p5675
aS'CPA Qld - Cadres and Education Committee'
p5676
aS'1955'
p5677
aa(lp5678
S'426038'
p5679
aS'A6122'
p5680
aS'567'
p5681
aS'CPA Victoria - Disputes Committee'
p5682
aS'1955'
p5683
aa(lp5684
S'426039'
p5685
aS'A6122'
p5686
aS'566'
p5687
aS"CPA Qld Women's Sub-Committee"
p5688
aS'1955'
p5689
aa(lp5690
S'437497'
p5691
aS'A6119'
p5692
aS'276'
p5693
aS'CHRISTESEN, Clement Byrne - Part 2'
p5694
aS'1954'
p5695
aa(lp5696
S'437504'
p5697
aS'A6119'
p5698
aS'277'
p5699
aS'CHRISTESEN, Clement Byrne Part 3'
p5700
aS'1956'
p5701
aa(lp5702
S'441156'
p5703
aS'A6122'
p5704
aS'812'
p5705
aS'Communist Party of Australia (Victoria) - Heidelberg'
p5706
aS'1949'
p5707
aa(lp5708
S'441170'
p5709
aS'A6122'
p5710
aS'783'
p5711
aS'Communist Party of Australia. NSW Front Branch'
p5712
aS'1949'
p5713
aa(lp5714
S'441172'
p5715
aS'A6122'
p5716
aS'781'
p5717
aS'Communist Party of Australia. NSW Newcastle South Branch'
p5718
aS'1949'
p5719
aa(lp5720
S'441173'
p5721
aS'A6122'
p5722
aS'780'
p5723
aS'Communist Party of Australia. NSW Redfern Branch'
p5724
aS'1949'
p5725
aa(lp5726
S'441176'
p5727
aS'A6122'
p5728
aS'777'
p5729
aS'Communist Party of Australia. NSW East Bankstown Branch'
p5730
aS'1955'
p5731
aa(lp5732
S'441179'
p5733
aS'A6122'
p5734
aS'774'
p5735
aS'Communist Party of Australia. NSW Cockatoo Dock Branch'
p5736
aS'1949'
p5737
aa(lp5738
S'441187'
p5739
aS'A6122'
p5740
aS'766'
p5741
aS'Communist Party of Australia - NSW Star Branch'
p5742
aS'1949'
p5743
aa(lp5744
S'441195'
p5745
aS'A6122'
p5746
aS'757'
p5747
aS'Communist Party of Australia. Branches NSW, TAA Branch'
p5748
aS'1949'
p5749
aa(lp5750
S'441199'
p5751
aS'A6122'
p5752
aS'753'
p5753
aS'Communist Party of Australia. NSW Bunnerong Branch'
p5754
aS'1949'
p5755
aa(lp5756
S'441202'
p5757
aS'A6122'
p5758
aS'750'
p5759
aS'Communist Party of Australia. NSW Sutherland Branch'
p5760
aS'1949'
p5761
aa(lp5762
S'441514'
p5763
aS'A6122'
p5764
aS'634'
p5765
aS'Communist Party of Australia - Queensland - City Section'
p5766
aS'1949'
p5767
aa(lp5768
S'451128'
p5769
aS'A6122'
p5770
aS'1183'
p5771
aS'Union of Australian women - Queensland Volume 4'
p5772
aS'1957'
p5773
aa(lp5774
S'7860480'
p5775
aS'A432'
p5776
aS'1972/5775  PART 2'
p5777
aS'Reports on Croatians October 1972'
p5778
aS'1972'
p5779
aa(lp5780
S'241391'
p5781
aS'A6283'
p5782
aS'28'
p5783
aS'Leading Government and Political Circles'
p5784
aS'1954'
p5785
aa(lp5786
S'270746'
p5787
aS'A6119'
p5788
aS'74'
p5789
aS'CHANDLER, Herbert Bovyll - Volumel 4'
p5790
aS'1953'
p5791
aa(lp5792
S'1327878'
p5793
aS'A6119'
p5794
aS'1582'
p5795
aS'KING, Trevor Ronald [5 pages - all of these contain exemptions]'
p5796
aS'1963'
p5797
aa(lp5798
S'1515888'
p5799
aS'A1533'
p5800
aS'1956/1459'
p5801
aS'DEVILLAN, J [16 pages]'
p5802
aS'1956'
p5803
aa(lp5804
S'3108564'
p5805
aS'A5882'
p5806
aS'CO862'
p5807
aS'Continental shelf - Common boundary Indonesia/Australia (Including the Territory of Papua /New Guinea) [3.5cm]'
p5808
aS'1972'
p5809
aa(lp5810
S'841414'
p5811
aS'A1838'
p5812
aS'TS383/6/1 PART 5'
p5813
aS'Indonesia. Top Secret documents. General [3cm]'
p5814
aS'1960'
p5815
aa(lp5816
S'510426'
p5817
aS'AWM54'
p5818
aS'179/1/4 PART 1'
p5819
aS'[Chemical Warfare - General:] Deputy Director of Military Operations: Correspondence on the subject of chemical warfare [Part 1 of 2]'
p5820
aS'1944'
p5821
aa(lp5822
S'510804'
p5823
aS'AWM54'
p5824
aS'179/5/1 PART 6'
p5825
aS'[Chemical Warfare - Trials:] Reports from the Chemical Defence Board, Research and Experimental Section, Innisfail, Queensland [Part 6 of 10]'
p5826
aS'1944'
p5827
aa(lp5828
S'510805'
p5829
aS'AWM54'
p5830
aS'179/5/1 PART 7'
p5831
aS'[Chemical Warfare - Trials:] Reports from the Chemical Defence Board, Research and Experimental Section, Innisfail, Queensland [Part 7 of 10]'
p5832
aS'1944'
p5833
aa(lp5834
S'510808'
p5835
aS'AWM54'
p5836
aS'179/5/1 PART 9'
p5837
aS'[Chemical Warfare - Trials:] Reports from the Chemical Defence Board, Research and Experimental Section, Innisfail, Queensland [Part 9 of 10]'
p5838
aS'1944'
p5839
aa(lp5840
S'510830'
p5841
aS'AWM54'
p5842
aS'179/5/1 PART 4'
p5843
aS'[Chemical Warfare - Trials:] Reports from the Chemical Defence Board, Research and Experimental Section, Innisfail, Queensland [Part 4 of 10]'
p5844
aS'1944'
p5845
aa(lp5846
S'510832'
p5847
aS'AWM54'
p5848
aS'179/5/1 PART 5'
p5849
aS'[Chemical Warfare - Trials:] Reports from the Chemical Defence Board, Research and Experimental Section, Innisfail, Queensland [Part 5 of 10]'
p5850
aS'1944'
p5851
aa(lp5852
S'539779'
p5853
aS'AWM54'
p5854
aS'179/1/20 PART 1'
p5855
aS'[Chemical Warfare - General:] Allied Land Forces, South West Pacific Area: Technical Notes and Staff Notes - Chemical Warfare, Feb 1942 [Part 1 of 19]'
p5856
aS'1942'
p5857
aa(lp5858
S'539781'
p5859
aS'AWM54'
p5860
aS'179/1/20 PART 3'
p5861
aS'[Chemical Warfare - General:] Allied Land Forces, South West Pacific Area: Technical Notes and Staff Notes - Chemical Warfare, Nov 1942 [Part 3 of 19]'
p5862
aS'1942'
p5863
aa(lp5864
S'539784'
p5865
aS'AWM54'
p5866
aS'179/1/20 PART 6'
p5867
aS'[Chemical Warfare - General:] Australian Military Forces: Technical Notes and Staff Notes - Chemical Warfare, May 1944 [Part 6 of 19]'
p5868
aS'1944'
p5869
aa(lp5870
S'539785'
p5871
aS'AWM54'
p5872
aS'179/1/20 PART 7'
p5873
aS'[Chemical Warfare - General:] Australian Military Forces: Technical Notes and Staff Notes - Chemical Warfare, Jun 1944 [Part 7 of 19]'
p5874
aS'1944'
p5875
aa(lp5876
S'539787'
p5877
aS'AWM54'
p5878
aS'179/1/20 PART 9'
p5879
aS'[Chemical Warfare - General:] Allied Land Forces, South West Pacific Area: Technical Notes and Staff Notes - Chemical Warfare, Feb 1943 [Part 9 of 19]'
p5880
aS'1943'
p5881
aa(lp5882
S'539788'
p5883
aS'AWM54'
p5884
aS'179/1/20 PART 10'
p5885
aS'[Chemical Warfare - General:] Allied Land Forces, South West Pacific Area: Technical Notes and Staff Notes - Chemical Warfare, Mar 1943 [Part 10 of 19]'
p5886
aS'1943'
p5887
aa(lp5888
S'539793'
p5889
aS'AWM54'
p5890
aS'179/1/20 PART 15'
p5891
aS'[Chemical Warfare - General:] Australian Military Forces: Technical Notes and Staff Notes - Chemical Warfare, Feb 1945 [Part 15 of 19]'
p5892
aS'1945'
p5893
aa(lp5894
S'589976'
p5895
aS'A1838'
p5896
aS'3020/11/87/1 PART 1'
p5897
aS'North Vietnam - Chinese Communist aid to North Vietnam'
p5898
aS'1974'
p5899
aa(lp5900
S'663680'
p5901
aS'AWM54'
p5902
aS'179/5/7 PART 4'
p5903
aS'[Chemical Warfare - Trials:] Reports from Australian Field Experimental Station, Proserpine, Queensland (May 1945) [part 4 of 10]'
p5904
aS'1945'
p5905
aa(lp5906
S'663681'
p5907
aS'AWM54'
p5908
aS'179/5/7 PART 6'
p5909
aS'[Chemical Warfare - Trials:] Reports from Australian Field Experimental Station, Proserpine, Queensland (Jul 1945) [Part 6 of 10]'
p5910
aS'1945'
p5911
aa(lp5912
S'663684'
p5913
aS'AWM54'
p5914
aS'179/5/7 PART 7'
p5915
aS'[Chemical Warfare - Trials:] Reports from Australian Field Experimental Station, Proserpine, Queensland (Aug 1945) [Part 7 of 10]'
p5916
aS'1945'
p5917
aa(lp5918
S'663686'
p5919
aS'AWM54'
p5920
aS'179/5/7 PART 8'
p5921
aS'[Chemical Warfare - Trials:] Reports from Australian Field Experimental Station, Proserpine, Queensland (Sep 1945) [Part 8 of 10]'
p5922
aS'1945'
p5923
aa(lp5924
S'4185623'
p5925
aS'A9954'
p5926
aS'SE/13/D32 ADDENDUM 1'
p5927
aS'Action taken by member governments on the recommendations of the committee - paper contributed by Thailand'
p5928
aS'1960'
p5929
aa(lp5930
S'678598'
p5931
aS'A6119'
p5932
aS'439'
p5933
aS'HEISER, Ronald Oswald'
p5934
aS'1959'
p5935
aa(lp5936
S'338601'
p5937
aS'A6119'
p5938
aS'248'
p5939
aS'BREZNIAK, Lhyam (VOLUME 2)'
p5940
aS'1955'
p5941
aa(lp5942
S'396674'
p5943
aS'B741'
p5944
aS'V/22057'
p5945
aS'Alfred F.D. Stadly'
p5946
aS'1955'
p5947
aa(lp5948
S'272509'
p5949
aS'A6126'
p5950
aS'44'
p5951
aS'WYSOKIER, Raphael'
p5952
aS'1951'
p5953
aa(lp5954
S'273769'
p5955
aS'A6122'
p5956
aS'155'
p5957
aS'Jewish Unity Association'
p5958
aS'1951'
p5959
aa(lp5960
S'276708'
p5961
aS'A6119'
p5962
aS'174'
p5963
aS'Thomas Percival LAIDLER'
p5964
aS'1954'
p5965
aa(lp5966
S'1611261'
p5967
aS'MP1155/1'
p5968
aS'V1962/30229'
p5969
aS'Paas, May'
p5970
aS'1962'
p5971
aa(lp5972
S'1611268'
p5973
aS'MP1155/1'
p5974
aS'V1962/32514'
p5975
aS'Paas, Frank'
p5976
aS'1962'
p5977
aa(lp5978
S'378370'
p5979
aS'A5954'
p5980
aS'1681/1'
p5981
aS'Reports by Secretary Department of Defence on visit abroad 1949. The restoration of the flow of United States classified information to Australia'
p5982
aS'1949'
p5983
aa(lp5984
S'583148'
p5985
aS'A1838'
p5986
aS'3027/2/1 PART 13'
p5987
aS'Malaysia - Political - General'
p5988
aS'1963'
p5989
aa(lp5990
S'583164'
p5991
aS'A1838'
p5992
aS'3027/2/1 PART 21'
p5993
aS'Malaysia - Political - General'
p5994
aS'1965'
p5995
aa(lp5996
S'962177'
p5997
aS'A1838'
p5998
aS'1212/5'
p5999
aS'Correspondence - cables. Overseas telecommunication channels. Cable and radio links. International and national communication bodies.'
p6000
aS'1960'
p6001
aa(lp6002
S'1352629'
p6003
aS'PP302/1'
p6004
aS'WA30198 PART 4'
p6005
aS'Protective Forces Handbook, number 126, 127, 128 and 129 of January 1954 prepared for use by police involved in the 1954 Royal visit to Western Australia.'
p6006
aS'1954'
p6007
aa(lp6008
S'1726048'
p6009
aS'A1838'
p6010
aS'919/12/14'
p6011
aS'United Nations - Nuclear weapons - Policy and capability of certain powers - Pakistan'
p6012
aS'1986'
p6013
aa(lp6014
S'510018'
p6015
aS'A816'
p6016
aS'14/301/412'
p6017
aS'Planning for co-operation in British Commonwealth defence (from conclusions of Council of Defence 1950)'
p6018
aS'1951'
p6019
aa(lp6020
S'510803'
p6021
aS'AWM54'
p6022
aS'179/1/23 PART 1'
p6023
aS'[Chemical Warfare - General:] 42nd Chemical Laboratory Company: Technical Reports [Part 1 of 9]'
p6024
aS'1945'
p6025
aa(lp6026
S'510812'
p6027
aS'AWM54'
p6028
aS'179/5/5 PART 11'
p6029
aS'[Chemical Warfare - Trials:] CDRE India: Notes and reports (Aug 1943) [Part 11 of 36]'
p6030
aS'1943'
p6031
aa(lp6032
S'510818'
p6033
aS'AWM54'
p6034
aS'179/5/5 PART 15'
p6035
aS'[Chemical Warfare - Trials:] CDRE India: Notes and reports (Jan 1944) [Part 15 of 36]'
p6036
aS'1944'
p6037
aa(lp6038
S'510820'
p6039
aS'AWM54'
p6040
aS'179/1/23 PART 7'
p6041
aS'[Chemical Warfare - General:] 42nd Chemical Laboratory Company: Technical Reports [Part 7 of 9]'
p6042
aS'1943'
p6043
aa(lp6044
S'510822'
p6045
aS'AWM54'
p6046
aS'179/1/23 PART 8'
p6047
aS'[Chemical Warfare - General:] 42nd Chemical Laboratory Company: Technical Reports [Part 8 of 9]'
p6048
aS'1944'
p6049
aa(lp6050
S'510838'
p6051
aS'AWM54'
p6052
aS'179/5/6 PART 9'
p6053
aS'[Chemical Warfare - Trials:] Reports by 2/1 Australian Chemical Warfare Laboratory, RAE [Part 9 of 12]'
p6054
aS'1944'
p6055
aa(lp6056
S'586407'
p6057
aS'A1838'
p6058
aS'3004/12/16 PART 2'
p6059
aS'South East Asia - General - Joint Intelligence Committee - Far East Review of Current Intelligence [JIC FE]'
p6060
aS'1961'
p6061
aa(lp6062
S'4725346'
p6063
aS'A12390'
p6064
aS'UNITED KINGDOM PART 1'
p6065
aS'Brief by Department of Foreign Affairs to Royal Commission on Intelligence and Security on British Intelligence establishment; [portion of title exempt]; Brief by Department of Foreign Affairs to Royal Commission on Intelligence and Security for visit to UK'
p6066
aS'1975'
p6067
aa(lp6068
S'6930471'
p6069
aS'A7452'
p6070
aS'A471'
p6071
aS'Documents removed from archives on 25 August 1983 for Mr Fraser'
p6072
aS'1983'
p6073
aa(lp6074
S'550241'
p6075
aS'A1838'
p6076
aS'3032/2/9 PART 12'
p6077
aS'Sarawak - Internal Security'
p6078
aS'1973'
p6079
aa(lp6080
S'583687'
p6081
aS'A1838'
p6082
aS'3034/7/7 PART 2'
p6083
aS'Indonesia - Foreign aid'
p6084
aS'1966'
p6085
aa(lp6086
S'12911172'
p6087
aS'D399'
p6088
aS'SA1982/16159'
p6089
aS'Deceit against the Spanish Community - Adelaide South Australia'
p6090
aS'1984'
p6091
aa(lp6092
S'1872066'
p6093
aS'A1838'
p6094
aS'1733/3/2 PART 1'
p6095
aS'Law of the sea - Delimitation - Australia - Indonesia [Timor]'
p6096
aS'1976'
p6097
aa(lp6098
S'551878'
p6099
aS'A1838'
p6100
aS'752/1/23 PART 14'
p6101
aS'Indonesia - Australia - Indonesia Continental Shelf Boundaries - Agreement Negotiations'
p6102
aS'1972'
p6103
aa(lp6104
S'651661'
p6105
aS'A816'
p6106
aS'25/301/566'
p6107
aS'Co-operation and exchange of information [modified title, original item title partially exempt]'
p6108
aS'1955'
p6109
aa(lp6110
S'652615'
p6111
aS'A816'
p6112
aS'14/301/731'
p6113
aS'South East Asia Treaty Organisation. Concept for the defence of South-East Asia in global war'
p6114
aS'1957'
p6115
aa(lp6116
S'4185621'
p6117
aS'A9954'
p6118
aS'SE/13/D9'
p6119
aS'Nature and extent of the Communist subversive threat in Pakistan:  paper contributed by Pakistan'
p6120
aS'1960'
p6121
aa(lp6122
S'4185625'
p6123
aS'A9954'
p6124
aS'SE/13/D46'
p6125
aS'Composition of delegation to the thirteenth meeting of the committee of security experts'
p6126
aS'1960'
p6127
aa.