ccopy_reg
_reconstructor
p0
(cmarkovify.text
NewlineText
p1
c__builtin__
object
p2
Ntp3
Rp4
(dp5
S'rejoined_text'
p6
S"Strategic planning in relation to British Commonwealth Defence - probable form and scale of attack against and within the ANZAM region to mid 1955. Director's memoranda re Home Office suspect index Antarctic policy 1958-1960 Mrs WANZEK - deceased - desire of Mrs MACEY to bring children to Australia GOODE Mrs AK - delegate to Geneva conference JUST Anna-Louise - naturalization NEUMANN Victor - naturalization Report of the Logistic Committee - 3rd meeting Bangkok 1960 Plan for defence of South East Asia MPO Plan 4/60 Main trends in Soviet capabilities and policies 1959-1964 Possible Developments in Laos up to 1960 Probable Communist Courses of Action in Asia up to 1960 Intelligence in the Middle East JIC London - weekly review of current intelligence - 1960 JIC London - weekly review of current intelligence 1960 SEATO - Logistics Committee meeting Bangkok - August 1959. Report 11th SEATO Military Advisers Meeting MPO Plan 2B/59 SEATO 5th intelligence committee meeting Bangkok Nov 1959 Australian representation SEATO - Report of the intelligence committee meeting Nov 1959 SEATO Council Meeting, Canberra 1957. Daily verbatim record ANZAM Military Staff Planners Meeting - Pearl Harbour - October 1955 Operation of SEATO plans in relation to Hong Kong CONAGHAN, Robert A. BUDDLE, Thomas Gordon, THOMAS, John Henry USSR. Weapons development - general ANZAM Intelligence Meeting, Singapore, November 1956 Intelligence sources and priorities report by Mr STEWART South East Asian Trade Organization - Tenth Military Advisers Meeting - South East Asian Trade Organization Military Planning Office plan 5/59 South East Asian Trade Organization - Planning to counter communist insurgency South East Asian Trade Organization Military Planning Office Plan 5B/59 - Plan for the introduction and maintenance of a South East Asian Trade Organization force to assist the Royal Laotian Government to counter Communist insurgency in Laos South East Asian Trade Organization Military planning to counter Communist insurgency in Laos SEATO. Report of Combined Civil and Military Conference on counter-subversion. Manila 1955 SEATO. Manila Conference Report 1955 on unconventional warfare London conference, 1948. Forward Planning No. 1 Soviet and satellite war potential 1953-1956 SEATO - Military Advisers 15th Conference - Report. SEATO - Intelligence Committee report of the meeting SEATO Tank investigation team - report on the best class of tank for use in Thailand. SEATO - Report of the Logistics Committee Brief for the Canadian Delegation to the Geneva Convention SEATO - Council of Ministers - Verbatim report of 7th Meeting Title exempt Report of SEATO military advisers - 14th Conference Plans for the defence of sea communications in the ANZAM Region Syria relations with Saudi Arabia Middle East. Intelligence summaries. Special Intelligence - Joint Intelligence Committee - Six monthly review Joint Intelligence Committee - London Reports United Kingdom Defence Organisation - Joint Intelligence Committee - London Reports Regional Defence - Indonesia - Australian strategic interest Importance of Indonesia to Australia and regional defence Joint Intelligence Committee weekly review of current intelligence on Middle East United Nations Anglo Argentine Dispute - Falkland Islands Lunatics Hong Kong Indonesia - Political - General South-East Asia Treaty Organisation. Report of the Council Representatives to the Council, March 1956 SEATO Council 1957 Canberra. Daily verbatim record. South-East Asia Treaty Organisation. Supplement to the Report of the Council Representatives to the Council, March 1957 South-East Asia Collective Defence Treaty. Report of Logistics Ad Hoc Sub-committee Meeting, Melbourne, Australia, August 1955 ANZUS Military Machinery United States - Australia security agreements. Information released through UK. Communist Party of Australia - Tasmania Launceston Rail Branch Probable form and scale of attack against Malaya - Joint Intelligence assessment Communist Party of Australia - South Australia. West Adelaide Branch Communist Party of Australia - South Australia. Eastwood Branch Communist Party of Australia - South Australia. Unley Branch Communist Party of Australia - South Australia. Edwardstown Communist Party of Australia - Industrial Branch - South Australia Communist Party of Australia - South Australia - ICI Branch Communist Party of Australia - South Australia - Waterfront Branch Communist Party of Australia - South Australia - Hillcrest Branch Communist Party of Australia - South Australia - Birkenhead Communist Party of Australia Plans for operations - Tasmania Danish and other suspects Exchange of Intelligence Information with United States Exchange of Defence Information between Canada and Australia Antarctica. Australian interests. Legal position and administration. General policy. Inspection and control. Communist Party of Australia - Victoria - BALWYN branch Communist Party of Australia - Victoria - Burwood branch Tasmania - Public meetings Communist Party of Australia - Western Australia - Bassendean Branch Communist Party of Australia - Western Australia - Belmont Park Branch Communist Party of Australia - Western Australia - Nedlands Branch Communist Party of Australia - Kensington branch Communist Party of Australia - Saint Vincents Hospital Building branch Communist Party in Australia - Victoria - North Melbourne branch Communist Party of Australia. Social activities - Queensland Communist Party of Australia - Progress Association faction - New South Wales Audrey Elsie BLAKE volume 3 Communist Party of Australia. Carriage News. Communist Party of Australia - South Australia. Schools Communist Party of Australia. Security within Communist Party of Australia Communist Party of Australia - Junior League Magazine Communist Party of Australia - Dynamo Communist Party of Australia - Canberra Propaganda Communist Party of Australia - Victoria, Schools Communist Party of Australia - Social activities, general Communist Party of Australia - Tasmania, illegal apparatus Communist Party of Australia - campaigns to increase membership and gain public support Communist Party of Australia - New South Wales, social activities Communist Party of Australia - Tasmania, schools Communist Party of Australia. Western Australia. Social Activities Communist Part of Australia. Electric Press Communist Party of Australia - New South Wales, Arrow Branch Communist Party of Australia - New South Wales, Brookvale - Manly Branch Communist Party of Australia - New South Wales, Albury Branch Communist Party of Australia. South Australia. Gas Company Communist Party of Australia. Western Australia, Carlisle Branch Communist Party of Australia. Western Australia, Bunbury Communist Party of Australia. Victoria, Port Melbourne Branch Communist Party of Australia. New South Wales, Morts Dock Branch Communist Party of Australia. Queensland Cadres Communist Party of Australia. Victoria. List of Undercover Addresses Indonesia - Political - General Communist Party of Australia - New South Wales, Waterloo Branch Communist Party of Australia - New South Wales, Menindee Branch Communist Party of Australia - New South Wales, Evans Head Branch Communist Party of Australia - Western Australia - illegal apparatus Communist Party of Australia South Australia - undercover addresses Communist Party of Australia - Queensland - illegal apparatus Communist Party of Australia - New South Wales - illegal apparatus Communist Party of Australia - Tasmania - illegal apparatus Communist Party of Australia - use of airfields Communist Party of Australia - Lists of Vehicles Prime Minister's discussions in London January 1951 United Nations Anglo-Argentine dispute Falkland Islands Communist Party of Australia. New South Wales - Moss Vale Branch. Communist Party of Australia. New South Wales - Herne Bay Branch. Communist Party of Australia. New South Wales - Jannali Branch. Communist Party of Australia. New South Wales - Malleys, South Sydney, Branch New works - funds authorisation Communist Party of Australia. Wharf Branch Victoria Communist Party of Australia. Eureka Youth League. Victoria Teleradio - Ocean Island Control Demand No.140 New Guinea - Milne Bay: Wireless Telegraph Codes Communist Party of Australia - Organization, status - Tasmania Communist Party of Australia - False witness Antarctica France - Disarmament - Nuclear Weapons Testing China - Communist Party - Evolution of Central Organisations of Chinese Communist Party 1921-58 China - Relations with Australia - Chinese Representation in Australia Atomic Energy - Australia Relations with India Singapore - Political - General Singapore - Defence - Armed Forces Malaysia - Political - General - Political Reports - Language - Education Issues Sarawak - Internal Security Sarawak - Internal Security Sarawak - Internal Security Indonesia - Relations with USA Indonesia - Australia - Indonesia Continental Shelf Boundaries - Agreement Negotiations Iran - Defence - Army Antarctica - Australian interests - Legal position and administration - Australian Antarctic Territory Antarctic - Heard Island Communism - SEATO Council representations Communism - SEATO committee on information - cultural - educational & labour activities SEATO - trends and highlights in Communist propaganda SEATO - trends and highlights in Communist propaganda SEATO - trends and highlights in Communist propaganda Communism - SEATO - economic aspects Communism - SEATO - summaries Communism - SEATO - summaries Australian Pacific interest - General policy including South Pacific Study Group Radio Australia - Technical - Foreign broadcast information - Service - Washington Radio Australia - Technical - Foreign broadcast information service - Washington Radio Australia - Technical - Foreign broadcast information service - Washington Immigration - To and from South Africa ANZUS Council - Proposed meeting, November 1956, in Washington Malaya - internal security Malaysia - Political - General Malaysia - Political - General Malaysia - Internal security Malaysia - Political Relations with Australia Communism - SEATO - Information Committee Communism - SEATO - Information Committee Tanganyika - Relations with China South Vietnam - Political general USSR Communist Inter Front Organisations Formosa - External relations - General Communist Party of Australia, Western Australia- schools Minister of Defence - Republic of Indonesia. Communist Party of Australia - Western Australia, Geraldton branch. Communist Party of Australia - Western Australia, Freemantle branch. Communist Party of Australia - Western Australia, Swan branch. Communist Party of Australia - Western Australia, Waterfront Tasmania. Communist Party of Australia - History of - Volume 1 Gibraltar as a link in Imperial Communications Gibraltar as a link in Imperial Communications. March - July 1937. Gibraltar as a link in Imperial Communications - Problem of Establishing an Air Base, Nov 1936 Gibraltar as a link in Imperial Communications - Reclamation of Land from the Sea for the purpose of a Military Aerodrome, Oct 1936 Gibraltar as a link in Imperial Communications - The problem of Establishing an Air Base, Oct 1936 Gibraltar as a link in Imperial Communications - The problem of Establishing an Air Base, Jul 1936 Anglo-Amercian strategy in the Far East Meeting of Defence Ministers, London, June, 1951. Correspondence relating to Cabinet agenda Target Selection Committee - Far East The Defence Department's Programme 1952-53 Probable form and scale of attack against Malaya - Agreement of joint intelligence assessments Tripartite military talks on South East Asia - Intelligence talks Information about Australia and the territories. Requests by US Service Attache. Cypher Production Organisation Deception Planning Indonesian Malay Association - Broome Western Australia Colin SIMPSON - Volume 1 Clement Byrne CHRISTESEN - Part 5 JOHNSTON, Elliott Frank - Part 2 JOHNSTON, Elliott Frank - Part 1 457/1946 : Joint Intelligence Bureau - Visit to Australia by Major-General STRONG : Agendum Number - 68/1946 and Supplementary 7 : Date of meeting - Tuesday 19 November 1946 243/1947 : Exchange of secret information between Australia and the United States : Agendum Number 17/1947 : Date of meeting - 22 July 1947 George Ernest Archer RUSSELL Exchange of information for SEAMIL purposes Quinpart Intelligence meetings ANZUS - Council Meeting in Washington, 1958, October Probable communist courses of action in Asia up to 1960. Bilateral information exchange with USA Indicators of Communist preparations for war in SEA. SEATO 12th Military Advisers Conference, Washington, May 1960. Report. SEATO - Report of the Communications Committee. Fourth meeting, June, 1960. SEATO - Intelligence Ad Hoc Committee meeting, Bangkok, December 1958 report. A summary of defence activities May, 1950. Copy No. 2 Brief for Chief of General Staff for discussions with NZ Chiefs of Staff Washington cables inwards chronological, numbers 1551 to 1899, 14 June to 19 July 1963 Kevin Raymond COX Communist Party of Australia - New South Wales - Eveleigh Loco Branch Kathleen Mary RICHARDS - Miscellaneous papers W.G. Burchett W.G. Burchett Trials - 25 PR BE Shell East Timor - Activities of Australian journalists Agenda item 2b. The Communist insurgent threat to the Treaty area. Collated paper presented by the United Kingdom Agenda item 3b. The inter-relations between Communist parties in the Treaty area and their role in furtherance of International Communist objectives. Collated paper presented by the United States Agenda item 2a. The nature and extent of the Communist subversive and insurgent threats to the Treaty area. Collated paper presented by the United Kingdom Communist insurgent threat to Pakistan - paper contributed by Pakistan Dr Rysard Stanislaw Zielinski Appointment of an additional assistant Trade Commissioner in Tokyo RUTHERFORD, John - Misc Papers FALCONER, James Albert - Misc Papers South Australian architectural drawing SA2194 - Cells, exercise yard and garage - Village Area- details of yard entrance gate and cell doors and benches ASIO Organization, Functions and Responsibilities - Lecture Notes - Exercises - Second Edition - Document 6A ASIO document: BfV The West German Security Intelligence Service: Service Regulations ASIO document: Report on Activities by Aliens Constituting a Threat to Security: Translation of BfV document ASIO document: Review of and Recommendations for Restructuring the Surveillance Capacity of ASIO ASIO and ASIS document: Report on Scientific and Technical Resources dated July 1976 ASIS document: Brief Background Notes on ASIS ASIO Organization, Functions and Responsibilities - Lecture Notes document 5 ASIO Organization, Functions and Responsibilities - Lecture Notes -document 5A ASIO Organization, Functions and Responsibilities - Lecture Notes - Exercises - First Edition - document 6 ASIO Commonwealth Security Conferences Department of Foreign Affairs Information on Portuguese Timor Part 3: 1. Assessments of Portuguese Timor situations made by Department of Foreign Affairs and Joint Intelligence Organization, 2. Ministerial submissions and major correspondence between Ministers on Portuguese Timor, 3. Briefs prepared by Department of Foreign Affairs, 4. Records of Conversations in Canberra or involving officers or Ministers from Canberra relating to Portuguese Timor, 5. Selections of significant telegrams from Canberra Submission by Department of Foreign Affairs to Royal Commission on Intelligence and Security re Reporting on Developments in Thailand October 1973 - March 1975 Department of Foreign Affairs papers on Jakarta Riots Department of Foreign Affairs Security Instructions Soviet Intelligence Operations Against Americans and US Installations Abroad: An Analysis of Soviet Doctrine and Practice The Satellite Intelligence and Security Services, June 1974 ASIO - The Lexi Control Manual New Scotland Yard Special Branch Annual Report 1974 Royal Commission on Intelligence and Security - Fourth Report - Draft - Correspondence Royal Commission on Intelligence and Security - Third Report - Defence, Joint Intelligence Organisation, National Intelligence Committee - Background West Germany - Intelligence and Security Services The Helsby Report: Classification of Official Matter Boyle Mr Michael Dorrington Correspondence ASIO Schedule for the Classification of Correspondence Czechoslovak Intelligence: Czechoslovak Ministry of Interior: Foreign Counterintelligence List of criminals wanted for murder by Italian authorities FBI inquiry re MATIONG Florencio Lopez aka Chi Chi MARTINEZ, BOND Victor Gerald, MONTOYA Alfred Arthur, MONTOYA Harold Otto Sinking of MV Wahine New Zealand Traffic in gold stolen from Canadian mines and RCMP booklet Security screening - Sweden Security screening procedure - Italy Security screening - Malta Antarctica - proposed soviet expedition Chemical warfare under tropical conditions Report of Australian Delegation on the Conference on certain Seabed Boundaries between Australia and Indonesia and Seabed Boundaries between Australia and Papua New Guinea - Part 2 1972 Report of the Australian Delegation to the Fourth Session of the United Nations Enlarged Committee on the Peaceful Uses of the Seabed - Geneva 17 July - 21 August 1972 Report of the Australian Delegation on the Conference on certain Seabed Boundaries between Australia and Indonesia and certain Seabed and Territorial Boundaries etc - 1972 Indonesia - International relations with other countries including Australia Intelligence and security services functions 1975 East Timor - reported deployment of Sabre aircraft and Nomad aircraft Arab terrorist activities Vietnam Intelligence co-ordination arrangements Black September - terrorist activity - Part 2 Cuba/Communist China economic relations Protective Security Review - Espionage Law of the Sea - Application to Australia - 1971 Shooting of Yugoslav in Act - press reports of Ustashi activity OMMUNDSON Frederick Srecko Rover, Croatian - cancellation of passport Discussions between Indonesia and Australia regarding continental shelf boundary United Kingdom request for Ugandan Asians to enter Australia South African Apartheid Policy - General - 1973 151/1945 : Destruction of Japanese crops in South West Pacific area 192/1945 : Destruction of Japanese crops 268/1945 : Destruction of Japanese crops in South West Pacific area Intelligence requests for information Croation Terrorism: Relations with Yugoslav Government - Part 3 Communist Party of Australia - Italian Club Victoria Croatians Communist Party of Australia - Papua New Guinea, illegal apparatus Claims in Australian Antarctic Territory Northern Territory Force - Operational Plan No. 1/66 Traffic in gold stolen from Canadian mines and RCMP booklet List of criminals wanted for murder by Italian authorities FBI inquiry re MATIONG Florencio Lopez aka Chi Chi MARTINEZ, BOND Victor Gerald, MONTOYA Alfred Arthur, MONTOYA Harold Otto Sinking of MV Wahine New Zealand HEALY, James Volume 1 Activities of the Russian Intelligence Service in Australia Financial Arrangements for ASIS March 1975 - March 1975 Station Directives - April 1975 Operation Adjutant Volume 5 part 1 - General court martial proceedings, SAC Michael Julien Brown 17 December 1958 Cabinet Decision 2059/NIS - Title exempt - Without Submission Cabinet Submission 1985 - Title exempt - Decision 4654/SEC Cabinet Submission 4207 - Project NULKA - Decision 8128 Cabinet Memorandum 4947 - Ttitle exempt - Decision 9781/SEC Cabinet Memorandum 5353 - SCIS Report to MInisters on the activities of the Intelligence and Security Agencies in 1986-87 - Decision 10780/SEC Indonesia. Communism in Indonesia Cryptographic Material for ASIO Evasion of Customs Regulations - RAAF Station, Rathmines Lecture handouts - clandestine operations ANZUS staff planners meeting, Pearl Harbour, March 1956 CHANDLER, Herbert, Bovyll - Volume 3 Liaison with overseas intelligence services Vol.4 Ric Prichard THROSSELL Volume 2. India - Relations with China. Cyprus - Political developments - General Claudio ALCORSO Communist Activity - Pine Creek - Katherine - Mataranka Area N.T. Communist Party of Australia - activities in libraries - Canberra. Volume 1 Middle East - Joint Intelligence Committee weekly review of Middle East Middle East - Joint Intelligence Committee - weekly review of Middle East Higher Defence Organisation Constitution and Terms of Reference of Chemical Defence Board ... Chemical and Biological Warfare Subcommittee ... New Weapons and Equipment Committee ... Chemical Defence Board ANZUS Council meeting - Washington, November 1956 Wilfred Graham Burchett Wilfred Graham Burchett Communist Party of Australia - South Australia Aggregate Meetings Communist Party of Australia - Branches Victoria St. Kilda Branch Volume 1 Communist Party of Australia - Branches Vicdtoria Boot Trade Branch Communist Party of Australia - Branches Victoria AbbotsfordBrewery Branch Communist Party of Australia - Branches - Victoria Exchange Branch Commonwealth Party of Australia - Branches Victoria - SEC Green Street Branch Communist Party of Australia. Branches Victoria Munitions Branch Communist Party of Australia - Unemployed Relief Committee Western Australia Communist Party of Australia - relations with Communist Party of the Soviet Union Security Screening Procedure - Netherlands Communist Party of Australia - Queensland - Sergeants Branch Communist Party of Australia. NSW Ross Street Technical College Branch Communist Party of Australia. NSW Matraville/La Perouse Branch Communist Party of Australia. Branches NSW, West Mascot Branch Communist Party of Australia. Branches NSW, East Mascot Branch Edward George ROBERTSON Volume 3 Ian Frank George MILNER volume 3 Vietnam - Industry and raw materials Antarctic - International Geophysical Year - Russian Participation Australia-Portugal - Negotiations on Portuguese Timor - Continental shelf Indonesia - Foreign aid to Indonesia Geoffrey SAWER Annie Margaret McARTHUR Communist Party of Australia - Eureka Youth League. Doris Amelia BLACKBURN Dr Julius STONE Ronald William NEAVE Vol 1 William J LATONA Phyllis LATONA Procedure for handling Soviet and satellite defectors Indonesia George Ernest Archer RUSSELL Ivan Fedorovich SKRIPOV, volume 8 Australian Institute of International Affairs, volume 2 FREESTONE, Robert Cyril Norman McDonald RICHMOND Nancy Glen and Hector Alan MACDONALD John Kurt KAISER Tom NELSON. Volume 1 John Alcorn DILLON Czechoslovakian Consulate - whereabouts enquiries and policy on same. Command organisation in the Middle East. File number 1. Review of ANZAM planning by United States Joint Chiefs of Staff JIC papers - exchange of information Project Ikara - Guidance System E C M OLLIER, Rose Marie Volume 5 Judah WATEN volume 4 Relationship of Quintel Organisation to Five Power Planners Organisation Sixth Quinpartite Intelligence Conference European Permanent Admissions - Landing Permits - ASIO Lists, Queensland European Permanent Admissions - Landing Permits - ASIO Lists, Queensland United Nations Association, Western Australia NEILL, Anne Miscellaneous Part 1 Anne NEILL. Supplement 2 SEATO - Review of Organization Middle East Intelligence and military situation reports Middle East Intelligence and military situation reports Middle East. Joint Intelligence Weekly Review of Middle East Middle East. Joint Intelligence Committee Reports Chinese Communist and Viet Min amphibitious capabilities - TS1172. CLARKE, Duncan Haig. Supplement 1 Export of strategic metals from Nauru. Volume 1 Rex Alfred MORTIMER. Volume 1 Reverend Rex Collis Mathias RAVLICH, Ante Communist Party of Australia - Branches Victoria - Bendigo branch Organisation of British Security Service Joyce Enid CLARKE - Volume 1 SEATO - Report of 6th Intelligence Committee meeting, Bangkok, December 1960 Middle East - JIC intelligence summaries 1958 Cabin 12, administration - Personal correspondence to Vladimir and Evdokia PETROV Alleged smuggling of goods and forged currency - Sydney. THOMPSON, Lachlan Joseph and others Currency - Miscellaneous offenders Office seals Police training classes for police officers and investigators all states except New South Wales Deployment of Australian troops in Malaysia Disarmament - NATO Council discussions Counterfeit US currency passed in Curacao Commonwealth Bank of Australia - Exchange Control - Sustenance remittances Security of official documents FALLIS, Herbert Elmer - Alleged counterfeiting of US currency BALZI, Gildo Australian Expeditions to Antarctic Continent - Policy Democratic Republic of Vietnam - Organisations abroad Employee organisations - Australian Federated Ironworkers Association, NSW, Volume 5 CPA Branches, NSW - Australian Iron and Steel, South Coast, Volume 1 US defence policy Establishment - Original report ASIS Financial file 1955-1956 Estimates 1957-1958 Codewords and nicknames Hong Kong - Civil disturbances GILLEN, James Patrick - Supp 1 Indonesia - Relations with Portuguese Timor South East Asia intra regional relations - Thailand - Relations with Singapore Malaysia - Australia relations - Australian representation Portuguese Timor - Political and General Van Zelm, Rudolf Indonesia - Activity in the United Nations China - Relations with Australia - Briefing material China - Foreign policy - General Japan - Relations with Australia - Basic Treaty of friendship and cooperation Japan - Relations with Australia - Basic Treaty of friendship and cooperation Japan - Relations with Australia - Basic Treaty of friendship and cooperation Japan - Relations with South Korea Security Personnel Vetting Department of the Interior - DeSMET, Jules Albert COLEMAN, Alfred Edgar - Volume 2 Indonesia - Situation reports Political situation in Burma Paas, Hubert Joseph Clark, Charles Paas, Yvonne Marie Top secret douments - North Vietnam JIC and JIS programme of work JIC - Australian intelligence targets and priorities JIC - Australian intelligence targets and priorities Intelligence conference Melbourne, November 1958 and Washington, 1962 and London, 1966 JIC London reports Exchange of intelligence material with the United States of America policy Exchange of intelligence material with the United States of America policy Indonesia - Armed forces China - Relations with Thailand Intelligence conference on China Middle East - Palestine Liberation Organisation and Arab league - Representatin in Australia Special screening of migrants from Italy - Mafia Indications of communist preparations for early war in South East Asia - UK committee report Geddes, Herbert Thomas - Volume 1 additional papers HMAS Leeuwin Tenders - Quarter ending 31/3/41 HMAS Bribane Tenders - Quarter ending 30/6/42 Immigration - Reciprocal social security agreement between Australia and Israel - Foreign relations - Aspects Exchange of intelligence material with the United States of America Republic of Korea - Atomic energy Kay, Helen ADP - Investigations branch programs The economic and political consequences of India's financial problems Anti-communist resistance potential in the Sino-Soviet Bloc Prospects for Indonesia UK Communications System for Far East and South East Asia - NT Site for proposed Relay Station Western Samoa - Intelligence briefing - Memorandum - Joint Intelligence Bureau - New Zealand Malaysia/Singapore defence policy and administration arrangements Interdepartmental committee on special problems of domestic violence Alan Patrick ROBERTS - ASIO file - miscellaneous papers Elsie Violet LOCKE Diplomatic representatives in Australia - Complaints from Embassies and Legations - Protection of diplomatic and consular premises - Srcko Blaz Rover - Yugoslav Signed minutes of meetings of the Australian Capital Territory Advisory Council - Volume 30 - 19 Jan 1970 to 22 Jun 1970 USSR. Proposed resumption of diplomatic relations Epworth Hospital Branch. Communist Party of Australia CPA Qld - Cadres and Education Committee CPA Victoria - Disputes Committee CPA Qld Women's Sub-Committee CHRISTESEN, Clement Byrne - Part 2 CHRISTESEN, Clement Byrne Part 3 Communist Party of Australia. NSW Front Branch Communist Party of Australia. NSW Newcastle South Branch Communist Party of Australia. NSW Redfern Branch Communist Party of Australia. NSW East Bankstown Branch Communist Party of Australia. NSW Cockatoo Dock Branch Communist Party of Australia - NSW Star Branch Communist Party of Australia. Branches NSW, TAA Branch Communist Party of Australia. NSW Bunnerong Branch Communist Party of Australia. NSW Sutherland Branch Communist Party of Australia - Queensland - City Section Union of Australian women - Queensland Volume 4 Reports on Croatians October 1972 Leading Government and Political Circles CHANDLER, Herbert Bovyll - Volumel 4 North Vietnam - Chinese Communist aid to North Vietnam Action taken by member governments on the recommendations of the committee - paper contributed by Thailand HEISER, Ronald Oswald Alfred F.D. Stadly WYSOKIER, Raphael Jewish Unity Association Thomas Percival LAIDLER Paas, May Paas, Frank Reports by Secretary Department of Defence on visit abroad 1949. The restoration of the flow of United States classified information to Australia Malaysia - Political - General Malaysia - Political - General Correspondence - cables. Overseas telecommunication channels. Cable and radio links. International and national communication bodies. Protective Forces Handbook, number 126, 127, 128 and 129 of January 1954 prepared for use by police involved in the 1954 Royal visit to Western Australia. United Nations - Nuclear weapons - Policy and capability of certain powers - Pakistan Documents removed from archives on 25 August 1983 for Mr Fraser Sarawak - Internal Security Indonesia - Foreign aid Deceit against the Spanish Community - Adelaide South Australia Indonesia - Australia - Indonesia Continental Shelf Boundaries - Agreement Negotiations South East Asia Treaty Organisation. Concept for the defence of South-East Asia in global war Nature and extent of the Communist subversive threat in Pakistan: paper contributed by Pakistan Composition of delegation to the thirteenth meeting of the committee of security experts "
p7
sS'chain'
p8
g0
(cmarkovify.chain
Chain
p9
g2
Ntp10
Rp11
(dp12
S'model'
p13
(dp14
(S'deceased'
p15
S'-'
p16
tp17
(dp18
S'desire'
p19
I1
ss(S'Nature'
p20
S'and'
p21
tp22
(dp23
S'extent'
p24
I1
ss(S'information'
p25
S'between'
p26
tp27
(dp28
S'Australia'
p29
I1
ss(S'Station,'
p30
S'Rathmines'
p31
tp32
(dp33
S'___END__'
p34
I1
ss(S'Canberra.'
p35
S'Volume'
p36
tp37
(dp38
S'1'
p39
I1
ss(S'Screening'
p40
S'Procedure'
p41
tp42
(dp43
g16
I1
ss(S'4207'
p44
g16
tp45
(dp46
S'Project'
p47
I1
ss(S'Cypher'
p48
S'Production'
p49
tp50
(dp51
S'Organisation'
p52
I1
ss(S'made'
p53
S'by'
p54
tp55
(dp56
S'Department'
p57
I1
ss(S'report'
p58
S'on'
p59
tp60
(dp61
S'the'
p62
I1
ss(S'East'
p63
S'Timor'
p64
tp65
(dp66
g16
I2
ss(S'Imperial'
p67
S'Communications'
p68
tp69
(dp70
g34
I1
sg16
I4
ss(S'NSW'
p71
S'Ross'
p72
tp73
(dp74
S'Street'
p75
I1
ss(S'meeting,'
p76
S'November'
p77
tp78
(dp79
S'1956,'
p80
I1
ss(S'Arrangements'
p81
S'for'
p82
tp83
(dp84
S'ASIS'
p85
I1
ss(S'ANZAM'
p86
S'region'
p87
tp88
(dp89
S'to'
p90
I1
ss(S'Home'
p91
S'Office'
p92
tp93
(dp94
S'suspect'
p95
I1
ss(S'Haig.'
p96
S'Supplement'
p97
tp98
(dp99
g39
I1
ss(S'The'
p100
S'Satellite'
p101
tp102
(dp103
S'Intelligence'
p104
I1
ss(S'Robert'
p105
S'A.'
p106
tp107
(dp108
g34
I1
ss(S'GILLEN,'
p109
S'James'
p110
tp111
(dp112
S'Patrick'
p113
I1
ss(S'of'
p114
S'airfields'
p115
tp116
(dp117
g34
I1
ss(S'Handbook,'
p118
S'number'
p119
tp120
(dp121
S'126,'
p122
I1
ss(S'Intelligence'
p123
S'briefing'
p124
tp125
(dp126
g16
I1
ss(g16
S'Negotiations'
p127
tp128
(dp129
S'on'
p130
I1
ss(S'Communism'
p131
g16
tp132
(dp133
S'SEATO'
p134
I7
ss(S'communication'
p135
S'bodies.'
p136
tp137
(dp138
g34
I1
ss(S'Plans'
p139
S'for'
p140
tp141
(dp142
S'operations'
p143
I1
sS'the'
p144
I1
ss(S'terrorist'
p145
S'activity'
p146
tp147
(dp148
g16
I1
ss(S'Alleged'
p149
S'counterfeiting'
p150
tp151
(dp152
S'of'
p153
I1
ss(S'Technical'
p154
S'College'
p155
tp156
(dp157
S'Branch'
p158
I1
ss(S'to'
p159
S'Hong'
p160
tp161
(dp162
S'Kong'
p163
I1
ss(S'of'
p164
S'Indonesia'
p165
tp166
(dp167
S'to'
p168
I1
ss(S'Australia'
p169
S'by'
p170
tp171
(dp172
S'Major-General'
p173
I1
ss(S'Washington,'
p174
S'November'
p175
tp176
(dp177
S'1956'
p178
I1
ss(S'129'
p179
S'of'
p180
tp181
(dp182
S'January'
p183
I1
ss(S'defence'
p184
S'policy'
p185
tp186
(dp187
S'and'
p188
I1
sg34
I1
ss(S'Document'
p189
S'6A'
p190
tp191
(dp192
g34
I1
ss(S'Tom'
p193
S'NELSON.'
p194
tp195
(dp196
S'Volume'
p197
I1
ss(S'Dorrington'
p198
S'Correspondence'
p199
tp200
(dp201
g34
I1
ss(S'Schedule'
p202
S'for'
p203
tp204
(dp205
S'the'
p206
I1
ss(S'conference'
p207
S'Melbourne,'
p208
tp209
(dp210
S'November'
p211
I1
ss(S'Western'
p212
S'Samoa'
p213
tp214
(dp215
g16
I1
ss(S'committee'
p216
S'of'
p217
tp218
(dp219
S'security'
p220
I1
ss(S'Probable'
p221
S'communist'
p222
tp223
(dp224
S'courses'
p225
I1
ss(S'Basic'
p226
S'Treaty'
p227
tp228
(dp229
S'of'
p230
I3
ss(S'murder'
p231
S'by'
p232
tp233
(dp234
S'Italian'
p235
I2
ss(S'Social'
p236
S'activities,'
p237
tp238
(dp239
S'general'
p240
I1
ss(S'the'
p241
S'flow'
p242
tp243
(dp244
S'of'
p245
I1
ss(g16
S'Far'
p246
tp247
(dp248
S'East'
p249
I1
ss(S'Newcastle'
p250
S'South'
p251
tp252
(dp253
S'Branch'
p254
I1
ss(S'NATO'
p255
S'Council'
p256
tp257
(dp258
S'discussions'
p259
I1
ss(S'___BEGIN__'
p260
S'Soviet'
p261
tp262
(dp263
S'and'
p264
I1
sS'Intelligence'
p265
I1
ss(S'Constituting'
p266
S'a'
p267
tp268
(dp269
S'Threat'
p270
I1
ss(S'of'
p271
S'ANZAM'
p272
tp273
(dp274
S'planning'
p275
I1
ss(S'Technical'
p276
S'Resources'
p277
tp278
(dp279
S'dated'
p280
I1
ss(S'British'
p281
S'Security'
p282
tp283
(dp284
S'Service'
p285
I1
ss(g16
S'Complaints'
p286
tp287
(dp288
S'from'
p289
I1
ss(g260
S'Czechoslovakian'
p290
tp291
(dp292
S'Consulate'
p293
I1
ss(g90
S'mid'
p294
tp295
(dp296
S'1955.'
p297
I1
ss(g47
S'NULKA'
p298
tp299
(dp300
g16
I1
ss(S'East'
p301
S'Asian'
p302
tp303
(dp304
S'Trade'
p305
I6
ss(S'Council'
p306
g16
tp307
(dp308
S'Volume'
p309
I1
sS'Proposed'
p310
I1
ss(S'document:'
p311
S'Brief'
p312
tp313
(dp314
S'Background'
p315
I1
ss(g260
g131
tp316
(dp317
g16
I7
ss(S'December'
p318
S'1958'
p319
tp320
(dp321
g34
I1
sS'report.'
p322
I1
ss(g260
S'The'
p323
tp324
(dp325
S'Helsby'
p326
I1
sg101
I1
sS'Defence'
p327
I1
sS'economic'
p328
I1
ss(S'Aggregate'
p329
S'Meetings'
p330
tp331
(dp332
g34
I1
ss(S'Australia'
p333
S'Relations'
p334
tp335
(dp336
S'with'
p337
I1
ss(S'Chi'
p338
S'MARTINEZ,'
p339
tp340
(dp341
S'BOND'
p342
I2
ss(g16
S'Six'
p343
tp344
(dp345
S'monthly'
p346
I1
ss(S'Meeting'
p347
S'of'
p348
tp349
(dp350
S'Defence'
p351
I1
ss(S'Mascot'
p352
S'Branch'
p353
tp354
(dp355
g34
I2
ss(S'defence'
p356
S'of'
p357
tp358
(dp359
S'South-East'
p360
I1
sS'sea'
p361
I1
sS'South'
p362
I1
ss(S'Volume'
p363
S'4'
p364
tp365
(dp366
g34
I1
ss(S'General'
p367
S'policy.'
p368
tp369
(dp370
S'Inspection'
p371
I1
ss(S'team'
p372
g16
tp373
(dp374
g58
I1
ss(S'Min'
p375
S'amphibitious'
p376
tp377
(dp378
S'capabilities'
p379
I1
ss(S'Report'
p380
S'1974'
p381
tp382
(dp383
g34
I1
ss(S'...'
p384
S'New'
p385
tp386
(dp387
S'Weapons'
p388
I1
ss(S'telegrams'
p389
S'from'
p390
tp391
(dp392
S'Canberra'
p393
I1
ss(S'proposed'
p394
S'Relay'
p395
tp396
(dp397
S'Station'
p398
I1
ss(S'6th'
p399
S'Intelligence'
p400
tp401
(dp402
S'Committee'
p403
I1
ss(S'Victoria'
p404
S'St.'
p405
tp406
(dp407
S'Kilda'
p408
I1
ss(S'Organisation.'
p409
S'Report'
p410
tp411
(dp412
S'of'
p413
I1
ss(g260
S'Command'
p414
tp415
(dp416
S'organisation'
p417
I1
ss(g260
S'Communist'
p418
tp419
(dp420
S'Party'
p421
I97
sS'insurgent'
p422
I1
sS'Part'
p423
I1
sS'Activity'
p424
I1
ss(S'Commonwealth'
p425
S'Defence'
p426
tp427
(dp428
g16
I1
ss(S'Canberra'
p429
S'relating'
p430
tp431
(dp432
S'to'
p433
I1
ss(S'July'
p434
g16
tp435
(dp436
S'21'
p437
I1
ss(S'Branches,'
p438
S'NSW'
p439
tp440
(dp441
g16
I1
ss(S'delegation'
p442
S'to'
p443
tp444
(dp445
S'the'
p446
I1
ss(g127
g130
tp447
(dp448
S'Portuguese'
p449
I1
ss(S'the'
p450
S'United'
p451
tp452
(dp453
S'States'
p454
I5
sS'Kingdom'
p455
I2
sS'Nations'
p456
I2
ss(S'targets'
p457
S'and'
p458
tp459
(dp460
S'priorities'
p461
I2
ss(g16
S'Second'
p462
tp463
(dp464
S'Edition'
p465
I1
ss(g213
g16
tp466
(dp467
g123
I1
ss(S'paper'
p468
S'contributed'
p469
tp470
(dp471
S'by'
p472
I3
ss(S'with'
p473
S'China.'
p474
tp475
(dp476
g34
I1
ss(S'BfV'
p477
S'The'
p478
tp479
(dp480
S'West'
p481
I1
ss(S'the'
p482
S'Communist'
p483
tp484
(dp485
S'subversive'
p486
I2
ss(S'Committee'
p487
g16
tp488
(dp489
S'3rd'
p490
I1
sg246
I1
sg343
I1
sS'London'
p491
I2
sS'Background'
p492
I1
sS'weekly'
p493
I1
ss(S'threats'
p494
S'to'
p495
tp496
(dp497
S'the'
p498
I1
ss(g16
S'Report'
p499
tp500
(dp501
S'of'
p502
I4
ss(g16
g15
tp503
(dp504
g16
I1
ss(S'Queensland'
p505
g16
tp506
(dp507
S'illegal'
p508
I1
sS'Sergeants'
p509
I1
sS'City'
p510
I1
ss(g260
S'List'
p511
tp512
(dp513
S'of'
p514
I2
ss(S'List'
p515
S'of'
p516
tp517
(dp518
S'criminals'
p519
I2
sS'Undercover'
p520
I1
ss(S'Ministers'
p521
g16
tp522
(dp523
S'Verbatim'
p524
I1
ss(S'Albert'
p525
g16
tp526
(dp527
S'Misc'
p528
I1
ss(g16
S'naturalization'
p529
tp530
(dp531
g34
I2
ss(S'released'
p532
S'through'
p533
tp534
(dp535
S'UK.'
p536
I1
ss(S'Soviet'
p537
S'Union'
p538
tp539
(dp540
g34
I1
ss(g260
S'China'
p541
tp542
(dp543
g16
I5
ss(S'Miscellaneous'
p544
S'Part'
p545
tp546
(dp547
g39
I1
ss(S'of'
p548
S'Australia,'
p549
tp550
(dp551
S'Western'
p552
I1
ss(S'SEATO'
p553
S'Military'
p554
tp555
(dp556
S'Advisers'
p557
I1
ss(S'5th'
p558
S'intelligence'
p559
tp560
(dp561
S'committee'
p562
I1
ss(S'1970'
p563
S'to'
p564
tp565
(dp566
S'22'
p567
I1
ss(S'Qld'
p568
S"Women's"
p569
tp570
(dp571
S'Sub-Committee'
p572
I1
ss(g260
S'Elsie'
p573
tp574
(dp575
S'Violet'
p576
I1
ss(S'Sixth'
p577
S'Quinpartite'
p578
tp579
(dp580
S'Intelligence'
p581
I1
ss(S'Territory'
p582
S'Force'
p583
tp584
(dp585
g16
I1
ss(S'Papua'
p586
S'New'
p587
tp588
(dp589
S'Guinea'
p590
I1
sS'Guinea,'
p591
I1
ss(S'George'
p592
S'ROBERTSON'
p593
tp594
(dp595
S'Volume'
p596
I1
ss(S'Meeting'
p597
g16
tp598
(dp599
S'Pearl'
p600
I1
sS'South'
p601
I1
ss(S'France'
p602
g16
tp603
(dp604
S'Disarmament'
p605
I1
ss(S'Intelligence'
p606
S'and'
p607
tp608
(dp609
S'military'
p610
I2
sS'Security'
p611
I6
sS'security'
p612
I1
ss(S'channels.'
p613
S'Cable'
p614
tp615
(dp616
S'and'
p617
I1
ss(S'Julius'
p618
S'STONE'
p619
tp620
(dp621
g34
I1
ss(g16
S'Language'
p622
tp623
(dp624
g16
I1
ss(S'Combined'
p625
S'Civil'
p626
tp627
(dp628
S'and'
p629
I1
ss(S'intra'
p630
S'regional'
p631
tp632
(dp633
S'relations'
p634
I1
ss(S'on'
p635
g606
tp636
(dp637
g607
I3
ss(g260
S'Signed'
p638
tp639
(dp640
S'minutes'
p641
I1
ss(S'Committee'
p642
S'...'
p643
tp644
(dp645
S'Chemical'
p646
I1
ss(S'Plan'
p647
S'2B/59'
p648
tp649
(dp650
g34
I1
ss(S'Pacific'
p651
S'interest'
p652
tp653
(dp654
g16
I1
ss(S'strategic'
p655
S'interest'
p656
tp657
(dp658
g34
I1
ss(g541
g16
tp659
(dp660
S'Communist'
p661
I1
sS'Relations'
p662
I3
sS'Foreign'
p663
I1
ss(S'Manly'
p664
S'Branch'
p665
tp666
(dp667
g34
I1
ss(S'South'
p668
S'Australia'
p669
tp670
(dp671
g329
I1
sg34
I2
sg16
I5
ss(S'Sea'
p672
g16
tp673
(dp674
S'Application'
p675
I1
ss(g260
S'OLLIER,'
p676
tp677
(dp678
S'Rose'
p679
I1
ss(S'overseas'
p680
S'intelligence'
p681
tp682
(dp683
S'services'
p684
I1
ss(S'exchange'
p685
S'with'
p686
tp687
(dp688
S'USA'
p689
I1
ss(S'military'
p690
S'talks'
p691
tp692
(dp693
S'on'
p694
I1
ss(g309
S'30'
p695
tp696
(dp697
g16
I1
ss(g16
S'Investigations'
p698
tp699
(dp700
S'branch'
p701
I1
ss(g16
S'Reclamation'
p702
tp703
(dp704
S'of'
p705
I1
ss(S'Rex'
p706
S'Collis'
p707
tp708
(dp709
S'Mathias'
p710
I1
ss(S'enter'
p711
S'Australia'
p712
tp713
(dp714
g34
I1
ss(S'Australia.'
p715
S'South'
p716
tp717
(dp718
S'Australia.'
p719
I1
ss(g260
S'Alan'
p720
tp721
(dp722
S'Patrick'
p723
I1
ss(S'Wales,'
p724
S'Waterloo'
p725
tp726
(dp727
S'Branch'
p728
I1
ss(S'Intelligence'
p729
S'Weekly'
p730
tp731
(dp732
S'Review'
p733
I1
ss(S'Defence,'
p734
S'Joint'
p735
tp736
(dp737
S'Intelligence'
p738
I1
ss(S'SEATO'
p739
g16
tp740
(dp741
S'Logistics'
p742
I1
sS'Information'
p743
I2
sS'Intelligence'
p744
I2
sS'Review'
p745
I1
sS'trends'
p746
I3
sS'economic'
p747
I1
sS'Council'
p748
I1
sg499
I4
sS'Military'
p749
I1
sS'summaries'
p750
I2
ss(S'Croatian'
p751
g16
tp752
(dp753
S'cancellation'
p754
I1
ss(S'of'
p755
S'ASIO'
p756
tp757
(dp758
g34
I1
ss(g414
g417
tp759
(dp760
S'in'
p761
I1
ss(S'File'
p762
S'number'
p763
tp764
(dp765
S'1.'
p766
I1
ss(g275
S'by'
p767
tp768
(dp769
S'United'
p770
I1
ss(S'Delegation'
p771
S'on'
p772
tp773
(dp774
S'the'
p775
I2
ss(S'and'
p776
g586
tp777
(dp778
g587
I1
ss(S'Malaysia'
p779
g16
tp780
(dp781
S'Australia'
p782
I1
sS'Internal'
p783
I1
sS'Political'
p784
I6
ss(S'George'
p785
S'Ernest'
p786
tp787
(dp788
S'Archer'
p789
I2
ss(S'Security'
p790
S'Conferences'
p791
tp792
(dp793
g34
I1
ss(S'The'
p794
S'restoration'
p795
tp796
(dp797
S'of'
p798
I1
ss(S'administration.'
p799
g367
tp800
(dp801
g368
I1
ss(S'The'
p802
S'Communist'
p803
tp804
(dp805
S'insurgent'
p806
I1
ss(S'Geophysical'
p807
S'Year'
p808
tp809
(dp810
g16
I1
ss(S'Jannali'
p811
S'Branch.'
p812
tp813
(dp814
g34
I1
ss(g16
S'DeSMET,'
p815
tp816
(dp817
S'Jules'
p818
I1
ss(S'Advisers'
p819
S'15th'
p820
tp821
(dp822
S'Conference'
p823
I1
ss(S'Higher'
p824
S'Defence'
p825
tp826
(dp827
S'Organisation'
p828
I1
ss(g260
S'Syria'
p829
tp830
(dp831
S'relations'
p832
I1
ss(S'intelligence'
p833
g16
tp834
(dp835
S'1960'
p836
I1
ss(S'and'
p837
S'Education'
p838
tp839
(dp840
S'Committee'
p841
I1
ss(g486
S'and'
p842
tp843
(dp844
S'insurgent'
p845
I1
ss(S'London'
p846
S'conference,'
p847
tp848
(dp849
S'1948.'
p850
I1
ss(g260
S'SEATO.'
p851
tp852
(dp853
S'Report'
p854
I1
sS'Manila'
p855
I1
ss(S'official'
p856
S'documents'
p857
tp858
(dp859
g34
I1
ss(S'Ikara'
p860
g16
tp861
(dp862
S'Guidance'
p863
I1
ss(g16
S'Original'
p864
tp865
(dp866
S'report'
p867
I1
ss(S'Waterfront'
p868
S'Branch'
p869
tp870
(dp871
g34
I1
ss(S'Embassies'
p872
S'and'
p873
tp874
(dp875
S'Legations'
p876
I1
ss(S'Affairs'
p877
S'Information'
p878
tp879
(dp880
S'on'
p881
I1
ss(S'Club'
p882
S'Victoria'
p883
tp884
(dp885
g34
I1
ss(g16
S'Ttitle'
p886
tp887
(dp888
S'exempt'
p889
I1
ss(S'Nations'
p890
g16
tp891
(dp892
S'Nuclear'
p893
I1
ss(S'Ministers'
p894
S'on'
p895
tp896
(dp897
S'Portuguese'
p898
I1
ss(S'Classification'
p899
S'of'
p900
tp901
(dp902
S'Correspondence'
p903
I1
sS'Official'
p904
I1
ss(S'Italian'
p905
g882
tp906
(dp907
g883
I1
ss(S'Organisation'
p908
g16
tp909
(dp910
S'Joint'
p911
I1
ss(S'form'
p912
S'and'
p913
tp914
(dp915
S'scale'
p916
I3
ss(S'Australian'
p917
S'interests.'
p918
tp919
(dp920
S'Legal'
p921
I1
ss(S'for'
p922
S'use'
p923
tp924
(dp925
S'by'
p926
I1
sS'in'
p927
I1
ss(S'Australia.'
p928
S'Victoria,'
p929
tp930
(dp931
S'Port'
p932
I1
ss(S'cables'
p933
S'inwards'
p934
tp935
(dp936
S'chronological,'
p937
I1
ss(g782
S'relations'
p938
tp939
(dp940
g16
I1
ss(S'Formosa'
p941
g16
tp942
(dp943
S'External'
p944
I1
ss(S'F.D.'
p945
S'Stadly'
p946
tp947
(dp948
g34
I1
ss(S'Session'
p949
S'of'
p950
tp951
(dp952
S'the'
p953
I1
ss(S'of'
p954
S'Customs'
p955
tp956
(dp957
S'Regulations'
p958
I1
ss(g16
S'Tasmania'
p959
tp960
(dp961
S'Launceston'
p962
I1
sg34
I2
sg16
I1
ss(g16
S'Lecture'
p963
tp964
(dp965
S'Notes'
p966
I4
ss(g439
g16
tp967
(dp968
S'Australian'
p969
I1
ss(g260
S'Composition'
p970
tp971
(dp972
S'of'
p973
I1
ss(S'with'
p974
S'Portuguese'
p975
tp976
(dp977
S'Timor'
p978
I1
ss(S'Soviet'
p979
S'capabilities'
p980
tp981
(dp982
S'and'
p983
I1
ss(g864
g867
tp984
(dp985
g34
I1
ss(g16
S'campaigns'
p986
tp987
(dp988
S'to'
p989
I1
ss(S'Logistics'
p990
S'Ad'
p991
tp992
(dp993
S'Hoc'
p994
I1
ss(S'by'
p995
S'member'
p996
tp997
(dp998
S'governments'
p999
I1
ss(S'Treaty'
p1000
g409
tp1001
(dp1002
g410
I1
sS'Supplement'
p1003
I1
sS'Concept'
p1004
I1
ss(S'the'
p1005
S'Report'
p1006
tp1007
(dp1008
S'of'
p1009
I1
ss(S'ASIS'
p1010
S'Financial'
p1011
tp1012
(dp1013
S'file'
p1014
I1
ss(S'March'
p1015
S'1956'
p1016
tp1017
(dp1018
g34
I2
ss(S'subversive'
p1019
S'threat'
p1020
tp1021
(dp1022
S'in'
p1023
I1
ss(g260
S'Clement'
p1024
tp1025
(dp1026
S'Byrne'
p1027
I1
ss(S'bring'
p1028
S'children'
p1029
tp1030
(dp1031
S'to'
p1032
I1
ss(S'threat'
p1033
S'to'
p1034
tp1035
(dp1036
S'Pakistan'
p1037
I1
sS'the'
p1038
I1
ss(S'New'
p1039
S'Scotland'
p1040
tp1041
(dp1042
S'Yard'
p1043
I1
ss(S'Mr'
p1044
S'Michael'
p1045
tp1046
(dp1047
g198
I1
ss(S'MACEY'
p1048
S'to'
p1049
tp1050
(dp1051
g1028
I1
ss(S'Intelligence'
p1052
S'sources'
p1053
tp1054
(dp1055
S'and'
p1056
I1
ss(g16
S'Eveleigh'
p1057
tp1058
(dp1059
S'Loco'
p1060
I1
ss(S'and'
p1061
S'others'
p1062
tp1063
(dp1064
g34
I1
ss(S'Elmer'
p1065
g16
tp1066
(dp1067
g149
I1
ss(g260
S'Middle'
p1068
tp1069
(dp1070
S'East'
p1071
I6
sS'East.'
p1072
I3
ss(S'organisations'
p1073
g16
tp1074
(dp1075
S'Australian'
p1076
I1
ss(g310
g76
tp1077
(dp1078
g77
I1
ss(S'Territorial'
p1079
S'Boundaries'
p1080
tp1081
(dp1082
S'etc'
p1083
I1
ss(S'James'
p1084
S'Volume'
p1085
tp1086
(dp1087
g39
I1
ss(g446
S'thirteenth'
p1088
tp1089
(dp1090
S'meeting'
p1091
I1
ss(S'involved'
p1092
S'in'
p1093
tp1094
(dp1095
S'the'
p1096
I1
ss(S'Biological'
p1097
S'Warfare'
p1098
tp1099
(dp1100
S'Subcommittee'
p1101
I1
ss(g260
S'Diplomatic'
p1102
tp1103
(dp1104
S'representatives'
p1105
I1
ss(S'WANZEK'
p1106
g16
tp1107
(dp1108
g15
I1
ss(S'significant'
p1109
g389
tp1110
(dp1111
g390
I1
ss(S'Ironworkers'
p1112
S'Association,'
p1113
tp1114
(dp1115
S'NSW,'
p1116
I1
ss(S'Planning'
p1117
S'Office'
p1118
tp1119
(dp1120
S'plan'
p1121
I1
sS'Plan'
p1122
I1
ss(S'July'
p1123
S'1976'
p1124
tp1125
(dp1126
g34
I1
ss(g260
S'UK'
p1127
tp1128
(dp1129
S'Communications'
p1130
I1
ss(S'states'
p1131
S'except'
p1132
tp1133
(dp1134
S'New'
p1135
I1
ss(S'Tenders'
p1136
g16
tp1137
(dp1138
S'Quarter'
p1139
I2
ss(g260
S'Portuguese'
p1140
tp1141
(dp1142
S'Timor'
p1143
I1
ss(S'NSW'
p1144
g250
tp1145
(dp1146
g251
I1
ss(S'MV'
p1147
S'Wahine'
p1148
tp1149
(dp1150
S'New'
p1151
I2
ss(g1043
S'Special'
p1152
tp1153
(dp1154
S'Branch'
p1155
I1
ss(S'Reports'
p1156
S'by'
p1157
tp1158
(dp1159
S'Secretary'
p1160
I1
ss(S'and'
p1161
S'Viet'
p1162
tp1163
(dp1164
g375
I1
ss(S'of'
p1165
S'Communist'
p1166
tp1167
(dp1168
S'preparations'
p1169
I1
ss(S'with'
p1170
S'Yugoslav'
p1171
tp1172
(dp1173
S'Government'
p1174
I1
ss(S'US'
p1175
S'currency'
p1176
tp1177
(dp1178
g34
I1
sS'passed'
p1179
I1
ss(g16
g1139
tp1180
(dp1181
S'ending'
p1182
I2
ss(S'of'
p1183
g399
tp1184
(dp1185
g400
I1
ss(S'additional'
p1186
S'papers'
p1187
tp1188
(dp1189
g34
I1
ss(S'Information'
p1190
S'with'
p1191
tp1192
(dp1193
S'United'
p1194
I1
ss(g16
S'Tenth'
p1195
tp1196
(dp1197
S'Military'
p1198
I1
ss(S'and'
p1199
S'policy'
p1200
tp1201
(dp1202
S'on'
p1203
I1
ss(S'of'
p1204
S'International'
p1205
tp1206
(dp1207
S'Communist'
p1208
I1
sS'Affairs,'
p1209
I1
ss(S'CHANDLER,'
p1210
S'Herbert'
p1211
tp1212
(dp1213
S'Bovyll'
p1214
I1
ss(S'Antarctic'
p1215
S'policy'
p1216
tp1217
(dp1218
S'1958-1960'
p1219
I1
ss(g260
S'Iran'
p1220
tp1221
(dp1222
g16
I1
ss(g16
S'Burwood'
p1223
tp1224
(dp1225
S'branch'
p1226
I1
ss(S'1950.'
p1227
S'Copy'
p1228
tp1229
(dp1230
S'No.'
p1231
I1
ss(g16
S'press'
p1232
tp1233
(dp1234
S'reports'
p1235
I1
ss(S'Security'
p1236
S'Instructions'
p1237
tp1238
(dp1239
g34
I1
ss(S'document:'
p1240
S'Report'
p1241
tp1242
(dp1243
S'on'
p1244
I2
ss(S'counter'
p1245
S'communist'
p1246
tp1247
(dp1248
S'insurgency'
p1249
I1
ss(S'Organisation.'
p1250
g1004
tp1251
(dp1252
S'for'
p1253
I1
ss(S'in'
p1254
S'Australian'
p1255
tp1256
(dp1257
S'Antarctic'
p1258
I1
ss(g663
S'policy'
p1259
tp1260
(dp1261
g16
I1
ss(S'Title'
p1262
S'exempt'
p1263
tp1264
(dp1265
g34
I1
sg16
I2
ss(S'Organisation'
p1266
S'of'
p1267
tp1268
(dp1269
g281
I1
ss(S'Wales,'
p1270
S'Evans'
p1271
tp1272
(dp1273
S'Head'
p1274
I1
ss(g260
g139
tp1275
(dp1276
g140
I1
ss(S'Bunnerong'
p1277
S'Branch'
p1278
tp1279
(dp1280
g34
I1
ss(S'report'
p1281
S'by'
p1282
tp1283
(dp1284
S'Mr'
p1285
I1
ss(S'Organisation'
p1286
S'to'
p1287
tp1288
(dp1289
S'Five'
p1290
I1
ss(S'7'
p1291
S':'
p1292
tp1293
(dp1294
S'Date'
p1295
I1
ss(S'Terms'
p1296
S'of'
p1297
tp1298
(dp1299
S'Reference'
p1300
I1
ss(S'Australia'
p1301
S'South'
p1302
tp1303
(dp1304
S'Australia'
p1305
I1
ss(S'ASIO'
p1306
S'Lists,'
p1307
tp1308
(dp1309
S'Queensland'
p1310
I2
ss(g230
S'friendship'
p1311
tp1312
(dp1313
S'and'
p1314
I3
ss(S'Surveillance'
p1315
S'Capacity'
p1316
tp1317
(dp1318
g755
I1
ss(S'East'
p1319
S'Mascot'
p1320
tp1321
(dp1322
S'Branch'
p1323
I1
ss(g16
S'Village'
p1324
tp1325
(dp1326
S'Area-'
p1327
I1
ss(S'of'
p1328
S'communist'
p1329
tp1330
(dp1331
S'preparations'
p1332
I1
ss(S'Industrial'
p1333
S'Branch'
p1334
tp1335
(dp1336
g16
I1
ss(S'of'
p1337
S'migrants'
p1338
tp1339
(dp1340
S'from'
p1341
I1
ss(S'Rover,'
p1342
g751
tp1343
(dp1344
g16
I1
ss(S'and'
p1345
S'Responsibilities'
p1346
tp1347
(dp1348
g16
I4
ss(S'their'
p1349
S'role'
p1350
tp1351
(dp1352
S'in'
p1353
I1
ss(S'Frank'
p1354
S'George'
p1355
tp1356
(dp1357
S'MILNER'
p1358
I1
ss(S'Nuclear'
p1359
S'Weapons'
p1360
tp1361
(dp1362
S'Testing'
p1363
I1
ss(S'secret'
p1364
S'douments'
p1365
tp1366
(dp1367
g16
I1
ss(g16
S'Junior'
p1368
tp1369
(dp1370
S'League'
p1371
I1
ss(S'Misc'
p1372
S'Papers'
p1373
tp1374
(dp1375
g34
I2
ss(S'in'
p1376
S'gold'
p1377
tp1378
(dp1379
S'stolen'
p1380
I2
ss(S'in'
p1381
S'Thailand'
p1382
tp1383
(dp1384
S'October'
p1385
I1
ss(g327
S"Department's"
p1386
tp1387
(dp1388
S'Programme'
p1389
I1
ss(S'Board'
p1390
S'...'
p1391
tp1392
(dp1393
S'Chemical'
p1394
I1
ss(S'Australia-'
p1395
S'schools'
p1396
tp1397
(dp1398
g34
I1
ss(S'Defence'
p1399
S'Information'
p1400
tp1401
(dp1402
S'between'
p1403
I1
ss(S'1975'
p1404
g16
tp1405
(dp1406
S'March'
p1407
I1
ss(g260
S'Plan'
p1408
tp1409
(dp1410
S'for'
p1411
I1
ss(S'Shelf'
p1412
S'Boundaries'
p1413
tp1414
(dp1415
g16
I2
ss(S'garage'
p1416
g16
tp1417
(dp1418
g1324
I1
ss(S'Claudio'
p1419
S'ALCORSO'
p1420
tp1421
(dp1422
g34
I1
ss(S'and'
p1423
S'political'
p1424
tp1425
(dp1426
S'consequences'
p1427
I1
ss(S'of'
p1428
S'and'
p1429
tp1430
(dp1431
S'Recommendations'
p1432
I1
ss(S'Advisory'
p1433
S'Council'
p1434
tp1435
(dp1436
g16
I1
ss(g991
g994
tp1437
(dp1438
S'Committee'
p1439
I1
sS'Sub-committee'
p1440
I1
ss(g260
S'Anglo-Amercian'
p1441
tp1442
(dp1443
S'strategy'
p1444
I1
ss(S'Decision'
p1445
S'8128'
p1446
tp1447
(dp1448
g34
I1
ss(g1130
S'System'
p1449
tp1450
(dp1451
S'for'
p1452
I1
ss(S'Organisations'
p1453
S'of'
p1454
tp1455
(dp1456
S'Chinese'
p1457
I1
ss(g260
S'Doris'
p1458
tp1459
(dp1460
S'Amelia'
p1461
I1
ss(S'Jun'
p1462
S'1970'
p1463
tp1464
(dp1465
g34
I1
ss(S'SEATO'
p1466
S'Tank'
p1467
tp1468
(dp1469
S'investigation'
p1470
I1
ss(S'Meeting'
p1471
S'in'
p1472
tp1473
(dp1474
S'Washington,'
p1475
I1
ss(S'CPA'
p1476
S'Victoria'
p1477
tp1478
(dp1479
g16
I1
ss(g1091
S'of'
p1480
tp1481
(dp1482
S'the'
p1483
I1
ss(g1389
S'1952-53'
p1484
tp1485
(dp1486
g34
I1
ss(S'telecommunication'
p1487
g613
tp1488
(dp1489
g614
I1
ss(S'Bangkok'
p1490
g16
tp1491
(dp1492
S'August'
p1493
I1
ss(g260
S'Bilateral'
p1494
tp1495
(dp1496
S'information'
p1497
I1
ss(S'Wilfred'
p1498
S'Graham'
p1499
tp1500
(dp1501
S'Burchett'
p1502
I2
ss(g294
g297
tp1503
(dp1504
g34
I1
ss(S'developments'
p1505
g16
tp1506
(dp1507
S'General'
p1508
I1
ss(S'Communism'
p1509
S'in'
p1510
tp1511
(dp1512
S'Indonesia'
p1513
I1
ss(S'the'
p1514
S'Fourth'
p1515
tp1516
(dp1517
g949
I1
ss(g260
g1498
tp1518
(dp1519
g1499
I2
ss(g16
S'Policy'
p1520
tp1521
(dp1522
S'and'
p1523
I1
sg34
I1
ss(S'NSW'
p1524
S'Matraville/La'
p1525
tp1526
(dp1527
S'Perouse'
p1528
I1
ss(S'E'
p1529
S'C'
p1530
tp1531
(dp1532
S'M'
p1533
I1
ss(g260
S'New'
p1534
tp1535
(dp1536
S'Guinea'
p1537
I1
sS'works'
p1538
I1
sg1040
I1
ss(S'Wales,'
p1539
S'social'
p1540
tp1541
(dp1542
S'activities'
p1543
I1
ss(S'Anna-Louise'
p1544
g16
tp1545
(dp1546
g529
I1
ss(g1152
g1155
tp1547
(dp1548
S'Annual'
p1549
I1
ss(S'Decision'
p1550
S'9781/SEC'
p1551
tp1552
(dp1553
g34
I1
ss(g454
g1292
tp1554
(dp1555
S'Agendum'
p1556
I1
ss(g16
S'North'
p1557
tp1558
(dp1559
S'Melbourne'
p1560
I1
sS'Vietnam'
p1561
I1
ss(S'11th'
p1562
g553
tp1563
(dp1564
g554
I1
ss(S'territories.'
p1565
S'Requests'
p1566
tp1567
(dp1568
S'by'
p1569
I1
ss(g725
g728
tp1570
(dp1571
g34
I1
ss(g913
g916
tp1572
(dp1573
S'of'
p1574
I3
ss(g260
S'Probable'
p1575
tp1576
(dp1577
S'Communist'
p1578
I1
sg222
I1
sS'form'
p1579
I2
ss(S'for'
p1580
S'Restructuring'
p1581
tp1582
(dp1583
S'the'
p1584
I1
ss(S'of'
p1585
S'Portuguese'
p1586
tp1587
(dp1588
S'Timor'
p1589
I1
ss(S'America'
p1590
S'policy'
p1591
tp1592
(dp1593
g34
I2
ss(g16
S'TS1172.'
p1594
tp1595
(dp1596
g34
I1
ss(S'court'
p1597
S'martial'
p1598
tp1599
(dp1600
S'proceedings,'
p1601
I1
ss(g260
S'Joyce'
p1602
tp1603
(dp1604
S'Enid'
p1605
I1
ss(S'Australia.'
p1606
g71
tp1607
(dp1608
S'Cockatoo'
p1609
I1
sg250
I1
sS'Front'
p1610
I1
sS'Redfern'
p1611
I1
sg1525
I1
sS'East'
p1612
I1
sS'Sutherland'
p1613
I1
sg1277
I1
sg72
I1
ss(S'Thomas'
p1614
g16
tp1615
(dp1616
S'Volume'
p1617
I1
ss(g1155
g1549
tp1618
(dp1619
g380
I1
ss(g16
S'25'
p1620
tp1621
(dp1622
S'PR'
p1623
I1
ss(S'Cyprus'
p1624
g16
tp1625
(dp1626
S'Political'
p1627
I1
ss(S'Land'
p1628
S'from'
p1629
tp1630
(dp1631
S'the'
p1632
I1
ss(g16
S'Herne'
p1633
tp1634
(dp1635
S'Bay'
p1636
I1
ss(g260
S'RUTHERFORD,'
p1637
tp1638
(dp1639
S'John'
p1640
I1
ss(S'memoranda'
p1641
S're'
p1642
tp1643
(dp1644
g91
I1
ss(S'information'
p1645
g16
tp1646
(dp1647
S'cultural'
p1648
I1
sS'Service'
p1649
I1
ss(g260
S'Top'
p1650
tp1651
(dp1652
g1364
I1
ss(S'South'
p1653
S'African'
p1654
tp1655
(dp1656
S'Apartheid'
p1657
I1
ss(S'wanted'
p1658
S'for'
p1659
tp1660
(dp1661
g231
I2
ss(S'Wales,'
p1662
S'Arrow'
p1663
tp1664
(dp1665
S'Branch'
p1666
I1
ss(S'Canberra.'
p1667
S'Daily'
p1668
tp1669
(dp1670
S'verbatim'
p1671
I1
ss(S'and'
p1672
S'within'
p1673
tp1674
(dp1675
S'the'
p1676
I1
ss(S'planners'
p1677
S'meeting,'
p1678
tp1679
(dp1680
S'Pearl'
p1681
I1
ss(S'of'
p1682
S'Middle'
p1683
tp1684
(dp1685
S'East'
p1686
I3
ss(S'W.G.'
p1687
S'Burchett'
p1688
tp1689
(dp1690
g34
I2
ss(S'Security'
p1691
S'Review'
p1692
tp1693
(dp1694
g16
I1
ss(S'NT'
p1695
S'Site'
p1696
tp1697
(dp1698
S'for'
p1699
I1
ss(S'Organisation'
p1700
S'and'
p1701
tp1702
(dp1703
S'Arab'
p1704
I1
ss(S'Kingdom'
p1705
S'Defence'
p1706
tp1707
(dp1708
g908
I1
ss(S'Continental'
p1709
S'shelf'
p1710
tp1711
(dp1712
g34
I1
ss(g1076
S'Federated'
p1713
tp1714
(dp1715
g1112
I1
ss(g16
S'1973'
p1716
tp1717
(dp1718
g34
I1
ss(S'NSW,'
p1719
S'TAA'
p1720
tp1721
(dp1722
S'Branch'
p1723
I1
ss(S'Spanish'
p1724
S'Community'
p1725
tp1726
(dp1727
g16
I1
ss(S'South'
p1728
g1539
tp1729
(dp1730
g725
I1
sg1271
I1
sS'Morts'
p1731
I1
sg1663
I1
sS'Albury'
p1732
I1
sS'Brookvale'
p1733
I1
sg1540
I1
sS'Menindee'
p1734
I1
ss(S'Hoc'
p1735
g1439
tp1736
(dp1737
S'meeting,'
p1738
I1
ss(g16
S'Decision'
p1739
tp1740
(dp1741
g1551
I1
sS'10780/SEC'
p1742
I1
sg1446
I1
sS'4654/SEC'
p1743
I1
ss(S'on'
p1744
S'special'
p1745
tp1746
(dp1747
S'problems'
p1748
I1
ss(S'Control'
p1749
S'Demand'
p1750
tp1751
(dp1752
S'No.140'
p1753
I1
ss(S'Victoria'
p1754
g16
tp1755
(dp1756
g1557
I1
sS'Bendigo'
p1757
I1
sS'BALWYN'
p1758
I1
sS'Disputes'
p1759
I1
sS'SEC'
p1760
I1
sg1223
I1
ss(S'additional'
p1761
S'assistant'
p1762
tp1763
(dp1764
S'Trade'
p1765
I1
ss(g1748
S'of'
p1766
tp1767
(dp1768
S'domestic'
p1769
I1
ss(g260
S'268/1945'
p1770
tp1771
(dp1772
g1292
I1
ss(S'Nations'
p1773
S'Association,'
p1774
tp1775
(dp1776
S'Western'
p1777
I1
ss(S'Western'
p1778
S'Australia'
p1779
tp1780
(dp1781
g34
I3
sg16
I4
ss(S'25'
p1782
S'August'
p1783
tp1784
(dp1785
S'1983'
p1786
I1
ss(S'Overseas'
p1787
g1487
tp1788
(dp1789
g613
I1
ss(g16
S'Bassendean'
p1790
tp1791
(dp1792
S'Branch'
p1793
I1
ss(g16
g750
tp1794
(dp1795
g34
I2
ss(S'Committee'
p1796
S'weekly'
p1797
tp1798
(dp1799
S'review'
p1800
I2
ss(S'Procedure'
p1801
S'for'
p1802
tp1803
(dp1804
S'handling'
p1805
I1
ss(S'and'
p1806
S'Seabed'
p1807
tp1808
(dp1809
S'Boundaries'
p1810
I1
ss(S'CHANDLER,'
p1811
S'Herbert,'
p1812
tp1813
(dp1814
S'Bovyll'
p1815
I1
ss(g16
S'Espionage'
p1816
tp1817
(dp1818
g34
I1
ss(S'19'
p1819
S'July'
p1820
tp1821
(dp1822
S'1963'
p1823
I1
ss(S'Admissions'
p1824
g16
tp1825
(dp1826
S'Landing'
p1827
I2
ss(S'States'
p1828
S'Joint'
p1829
tp1830
(dp1831
S'Chiefs'
p1832
I1
ss(S'Australia.'
p1833
S'Queensland'
p1834
tp1835
(dp1836
S'Cadres'
p1837
I1
ss(g970
g973
tp1838
(dp1839
g442
I1
ss(g823
g16
tp1840
(dp1841
S'Report.'
p1842
I1
ss(S'for'
p1843
S'Mr'
p1844
tp1845
(dp1846
S'Fraser'
p1847
I1
ss(S'Communist'
p1848
S'insurgency'
p1849
tp1850
(dp1851
S'in'
p1852
I2
ss(g1470
g372
tp1853
(dp1854
g16
I1
ss(S'Target'
p1855
S'Selection'
p1856
tp1857
(dp1858
S'Committee'
p1859
I1
ss(S'Australia'
p1860
S'regarding'
p1861
tp1862
(dp1863
S'continental'
p1864
I1
ss(g16
S'Milne'
p1865
tp1866
(dp1867
S'Bay:'
p1868
I1
ss(S'programme'
p1869
S'of'
p1870
tp1871
(dp1872
S'work'
p1873
I1
ss(S'capability'
p1874
S'of'
p1875
tp1876
(dp1877
S'certain'
p1878
I1
ss(g260
S'Epworth'
p1879
tp1880
(dp1881
S'Hospital'
p1882
I1
ss(S'Antarctica.'
p1883
g917
tp1884
(dp1885
g918
I1
ss(S'Expeditions'
p1886
S'to'
p1887
tp1888
(dp1889
S'Antarctic'
p1890
I1
ss(S'Minister'
p1891
S'of'
p1892
tp1893
(dp1894
S'Defence'
p1895
I1
ss(g290
g293
tp1896
(dp1897
g16
I1
ss(g260
S'Cabinet'
p1898
tp1899
(dp1900
S'Decision'
p1901
I1
sS'Memorandum'
p1902
I2
sS'Submission'
p1903
I2
ss(g878
g881
tp1904
(dp1905
S'Portuguese'
p1906
I1
ss(S'Aerodrome,'
p1907
S'Oct'
p1908
tp1909
(dp1910
S'1936'
p1911
I1
ss(S'Forward'
p1912
S'Planning'
p1913
tp1914
(dp1915
S'No.'
p1916
I1
ss(g16
S'Falkland'
p1917
tp1918
(dp1919
S'Islands'
p1920
I1
ss(g1391
g1394
tp1921
(dp1922
S'and'
p1923
I1
sS'Defence'
p1924
I1
ss(g16
S'Cells,'
p1925
tp1926
(dp1927
S'exercise'
p1928
I1
ss(S'Commission'
p1929
g635
tp1930
(dp1931
g606
I3
ss(S'military'
p1932
S'advisers'
p1933
tp1934
(dp1935
g16
I1
ss(g16
S'First'
p1936
tp1937
(dp1938
S'Edition'
p1939
I1
ss(S'of'
p1940
S'Vehicles'
p1941
tp1942
(dp1943
g34
I1
ss(S'Hillcrest'
p1944
S'Branch'
p1945
tp1946
(dp1947
g34
I1
ss(g260
S'ASIO'
p1948
tp1949
(dp1950
S'and'
p1951
I1
sS'Commonwealth'
p1952
I1
sg202
I1
sS'document:'
p1953
I3
sg16
I1
sS'Organization,'
p1954
I4
ss(g1901
S'2059/NIS'
p1955
tp1956
(dp1957
g16
I1
ss(S'Ric'
p1958
S'Prichard'
p1959
tp1960
(dp1961
S'THROSSELL'
p1962
I1
ss(S'Counterfeit'
p1963
g1175
tp1964
(dp1965
g1176
I1
ss(S'report'
p1966
S'of'
p1967
tp1968
(dp1969
S'7th'
p1970
I1
sS'the'
p1971
I1
ss(S'to'
p1972
g1245
tp1973
(dp1974
g1246
I1
sg1848
I2
ss(S'Unley'
p1975
S'Branch'
p1976
tp1977
(dp1978
g34
I1
ss(g260
g193
tp1979
(dp1980
g194
I1
ss(S'position'
p1981
S'and'
p1982
tp1983
(dp1984
S'administration'
p1985
I1
sg799
I1
ss(S'action'
p1986
S'in'
p1987
tp1988
(dp1989
S'Asia'
p1990
I1
ss(S'July'
p1991
S'1947'
p1992
tp1993
(dp1994
g34
I1
ss(g1235
S'of'
p1995
tp1996
(dp1997
S'Ustashi'
p1998
I1
ss(S'including'
p1999
S'Australia'
p2000
tp2001
(dp2002
g34
I1
ss(S'Herbert'
p2003
g1065
tp2004
(dp2005
g16
I1
ss(g955
g958
tp2006
(dp2007
g16
I1
ss(g478
g481
tp2008
(dp2009
S'German'
p2010
I1
ss(g87
g90
tp2011
(dp2012
g294
I1
ss(S'the'
p2013
S'recommendations'
p2014
tp2015
(dp2016
S'of'
p2017
I1
ss(g16
S'Problem'
p2018
tp2019
(dp2020
S'of'
p2021
I1
ss(g1032
S'Australia'
p2022
tp2023
(dp2024
S'and'
p2025
I1
sg34
I2
sg16
I1
sg170
I1
ss(g16
g601
tp2026
(dp2027
g669
I6
sS'Australia.'
p2028
I5
sS'East'
p2029
I1
ss(g1610
S'Branch'
p2030
tp2031
(dp2032
g34
I1
ss(S'committee'
p2033
S'on'
p2034
tp2035
(dp2036
g1645
I1
sg1745
I1
ss(S'Laos'
p2037
S'up'
p2038
tp2039
(dp2040
S'to'
p2041
I1
ss(S'Wales,'
p2042
g1734
tp2043
(dp2044
S'Branch'
p2045
I1
ss(S'1959.'
p2046
S'Report'
p2047
tp2048
(dp2049
g34
I1
ss(S'New'
p2050
S'South'
p2051
tp2052
(dp2053
S'Wales'
p2054
I8
sg1539
I8
ss(g260
g48
tp2055
(dp2056
g49
I1
ss(S'WYSOKIER,'
p2057
S'Raphael'
p2058
tp2059
(dp2060
g34
I1
ss(S'Notes'
p2061
S'on'
p2062
tp2063
(dp2064
S'ASIS'
p2065
I1
ss(S'Northern'
p2066
g582
tp2067
(dp2068
g583
I1
ss(S'Hospital'
p2069
S'Building'
p2070
tp2071
(dp2072
S'branch'
p2073
I1
ss(S'Material'
p2074
S'for'
p2075
tp2076
(dp2077
S'ASIO'
p2078
I1
ss(S'Conference'
p2079
S'on'
p2080
tp2081
(dp2082
S'certain'
p2083
I2
sS'counter-subversion.'
p2084
I1
ss(g260
g1883
tp2085
(dp2086
g917
I1
ss(g16
g836
tp2087
(dp2088
g34
I1
ss(S'Soviet'
p2089
g265
tp2090
(dp2091
S'Operations'
p2092
I1
ss(S'Malaya'
p2093
g16
tp2094
(dp2095
S'Joint'
p2096
I1
sS'internal'
p2097
I1
sS'Agreement'
p2098
I1
ss(g260
S'Export'
p2099
tp2100
(dp2101
S'of'
p2102
I1
ss(S'submissions'
p2103
S'and'
p2104
tp2105
(dp2106
S'major'
p2107
I1
ss(S'Joseph'
p2108
g1061
tp2109
(dp2110
g1062
I1
ss(S'Australia,'
p2111
S'Swan'
p2112
tp2113
(dp2114
S'branch.'
p2115
I1
ss(S'Alleged'
p2116
S'smuggling'
p2117
tp2118
(dp2119
S'of'
p2120
I1
ss(S'1960.'
p2121
S'Report.'
p2122
tp2123
(dp2124
g34
I1
ss(S'Kong'
p2125
g16
tp2126
(dp2127
S'Civil'
p2128
I1
ss(g1314
S'cooperation'
p2129
tp2130
(dp2131
g34
I3
ss(g16
g1758
tp2132
(dp2133
S'branch'
p2134
I1
ss(S'proposed'
p2135
S'soviet'
p2136
tp2137
(dp2138
S'expedition'
p2139
I1
ss(g16
S'Palestine'
p2140
tp2141
(dp2142
S'Liberation'
p2143
I1
ss(S'Royal'
p2144
S'visit'
p2145
tp2146
(dp2147
S'to'
p2148
I1
ss(S'purpose'
p2149
S'of'
p2150
tp2151
(dp2152
g267
I1
ss(S'March'
p2153
S'1975'
p2154
tp2155
(dp2156
g34
I2
sg16
I1
ss(g16
S'Mafia'
p2157
tp2158
(dp2159
g34
I1
ss(S'Base,'
p2160
S'Nov'
p2161
tp2162
(dp2163
S'1936'
p2164
I1
ss(g16
g1372
tp2165
(dp2166
g1373
I2
ss(g16
S'General'
p2167
tp2168
(dp2169
S'policy'
p2170
I1
sg1597
I1
sg34
I10
sg16
I2
ss(S'Control'
p2171
g16
tp2172
(dp2173
S'Sustenance'
p2174
I1
ss(S'1899,'
p2175
S'14'
p2176
tp2177
(dp2178
S'June'
p2179
I1
ss(S'Liaison'
p2180
S'with'
p2181
tp2182
(dp2183
g680
I1
ss(S'Scientific'
p2184
S'and'
p2185
tp2186
(dp2187
g276
I1
ss(S'Meeting,'
p2188
S'Canberra'
p2189
tp2190
(dp2191
S'1957.'
p2192
I1
ss(g16
g863
tp2193
(dp2194
S'System'
p2195
I1
ss(S'17'
p2196
g434
tp2197
(dp2198
g16
I1
ss(g16
g492
tp2199
(dp2200
g34
I1
ss(g260
S'HEISER,'
p2201
tp2202
(dp2203
S'Ronald'
p2204
I1
ss(S'to'
p2205
S'Cabinet'
p2206
tp2207
(dp2208
S'agenda'
p2209
I1
ss(S'conference'
p2210
S'on'
p2211
tp2212
(dp2213
S'China'
p2214
I1
ss(S'Tasmania,'
p2215
S'illegal'
p2216
tp2217
(dp2218
S'apparatus'
p2219
I1
ss(g437
S'August'
p2220
tp2221
(dp2222
S'1972'
p2223
I1
ss(S'68/1946'
p2224
S'and'
p2225
tp2226
(dp2227
S'Supplementary'
p2228
I1
ss(g1475
S'1958,'
p2229
tp2230
(dp2231
S'October'
p2232
I1
ss(g260
S'William'
p2233
tp2234
(dp2235
S'J'
p2236
I1
ss(S'192/1945'
p2237
g1292
tp2238
(dp2239
S'Destruction'
p2240
I1
ss(S'with'
p2241
S'the'
p2242
tp2243
(dp2244
S'United'
p2245
I3
ss(g16
S'Fourth'
p2246
tp2247
(dp2248
S'Report'
p2249
I1
ss(g395
g398
tp2250
(dp2251
g34
I1
ss(S'Relationship'
p2252
S'of'
p2253
tp2254
(dp2255
S'Quintel'
p2256
I1
ss(S'Service:'
p2257
S'Service'
p2258
tp2259
(dp2260
S'Regulations'
p2261
I1
ss(S'Chiefs'
p2262
S'of'
p2263
tp2264
(dp2265
S'Staff'
p2266
I2
ss(S'Americans'
p2267
S'and'
p2268
tp2269
(dp2270
S'US'
p2271
I1
ss(S'broadcast'
p2272
S'information'
p2273
tp2274
(dp2275
g16
I1
sS'service'
p2276
I2
ss(S'Committee'
p2277
S'Western'
p2278
tp2279
(dp2280
S'Australia'
p2281
I1
ss(g1530
g1533
tp2282
(dp2283
g34
I1
ss(g2276
g16
tp2284
(dp2285
S'Washington'
p2286
I2
ss(g934
g937
tp2287
(dp2288
S'numbers'
p2289
I1
ss(g1766
g1769
tp2290
(dp2291
S'violence'
p2292
I1
ss(g2211
g2214
tp2293
(dp2294
g34
I1
ss(g265
g2092
tp2295
(dp2296
S'Against'
p2297
I1
ss(S'Korea'
p2298
g16
tp2299
(dp2300
S'Atomic'
p2301
I1
ss(g260
S'Review'
p2302
tp2303
(dp2304
g271
I1
ss(S'JOHNSTON,'
p2305
S'Elliott'
p2306
tp2307
(dp2308
S'Frank'
p2309
I2
ss(S'undercover'
p2310
S'addresses'
p2311
tp2312
(dp2313
g34
I1
ss(g379
g16
tp2314
(dp2315
g1594
I1
ss(S'Education'
p2316
S'Issues'
p2317
tp2318
(dp2319
g34
I1
ss(S'John'
p2320
S'Alcorn'
p2321
tp2322
(dp2323
S'DILLON'
p2324
I1
ss(S'The'
p2325
g328
tp2326
(dp2327
g1423
I1
ss(S'Branches'
p2328
g404
tp2329
(dp2330
g405
I1
sS'AbbotsfordBrewery'
p2331
I1
sg16
I2
sS'Munitions'
p2332
I1
ss(S'all'
p2333
g1131
tp2334
(dp2335
g1132
I1
ss(S'of'
p2336
g2298
tp2337
(dp2338
g16
I1
ss(S'under'
p2339
S'tropical'
p2340
tp2341
(dp2342
S'conditions'
p2343
I1
ss(g1906
S'Timor'
p2344
tp2345
(dp2346
S'situations'
p2347
I1
sg34
I1
sS'Part'
p2348
I1
sg16
I2
ss(g886
g889
tp2349
(dp2350
g16
I1
ss(S'ANZAM'
p2351
S'Region'
p2352
tp2353
(dp2354
g34
I1
ss(g260
S'ANZAM'
p2355
tp2356
(dp2357
S'Military'
p2358
I1
sS'Intelligence'
p2359
I1
ss(S'by'
p2360
S'Aliens'
p2361
tp2362
(dp2363
g266
I1
ss(S'CHRISTESEN,'
p2364
S'Clement'
p2365
tp2366
(dp2367
S'Byrne'
p2368
I2
ss(g1324
g1327
tp2369
(dp2370
S'details'
p2371
I1
ss(S'to'
p2372
g2175
tp2373
(dp2374
g2176
I1
ss(S'Association'
p2375
S'faction'
p2376
tp2377
(dp2378
g16
I1
ss(g16
S'Technical'
p2379
tp2380
(dp2381
g16
I3
ss(S'shelf'
p2382
S'boundary'
p2383
tp2384
(dp2385
g34
I1
ss(g1360
g1363
tp2386
(dp2387
g34
I1
ss(S'league'
p2388
g16
tp2389
(dp2390
S'Representatin'
p2391
I1
ss(S'Continental'
p2392
g1412
tp2393
(dp2394
g1413
I2
ss(S'To'
p2395
S'and'
p2396
tp2397
(dp2398
S'from'
p2399
I1
ss(S'Dock'
p2400
S'Branch'
p2401
tp2402
(dp2403
g34
I2
ss(S'Committee'
p2404
S'meeting'
p2405
tp2406
(dp2407
g1490
I1
ss(g818
S'Albert'
p2408
tp2409
(dp2410
g34
I1
ss(S'HMAS'
p2411
S'Leeuwin'
p2412
tp2413
(dp2414
g1136
I1
ss(g742
g2404
tp2415
(dp2416
g34
I1
sg2405
I1
ss(g260
S'Indonesia'
p2417
tp2418
(dp2419
g34
I1
sg16
I12
ss(g343
g346
tp2420
(dp2421
S'review'
p2422
I1
ss(S'the'
p2423
S'Logistic'
p2424
tp2425
(dp2426
g487
I1
ss(S'AK'
p2427
g16
tp2428
(dp2429
S'delegate'
p2430
I1
ss(S'1949.'
p2431
g794
tp2432
(dp2433
g795
I1
ss(S'exempt'
p2434
g16
tp2435
(dp2436
g1739
I2
sS'Without'
p2437
I1
ss(S'increase'
p2438
S'membership'
p2439
tp2440
(dp2441
S'and'
p2442
I1
ss(S'General'
p2443
g16
tp2444
(dp2445
g1716
I1
sS'Political'
p2446
I1
ss(S'ANZUS'
p2447
S'staff'
p2448
tp2449
(dp2450
g1677
I1
ss(g232
g235
tp2451
(dp2452
S'authorities'
p2453
I2
ss(S'Australian'
p2454
S'journalists'
p2455
tp2456
(dp2457
g34
I1
ss(g2249
g16
tp2458
(dp2459
g734
I1
sS'Draft'
p2460
I1
ss(S'Antarctic'
p2461
S'Territory'
p2462
tp2463
(dp2464
g34
I2
ss(g1023
S'Pakistan:'
p2465
tp2466
(dp2467
S'paper'
p2468
I1
ss(S'terrorist'
p2469
S'activities'
p2470
tp2471
(dp2472
g34
I1
ss(g1292
S'Agendum'
p2473
tp2474
(dp2475
S'Number'
p2476
I2
ss(S'MONTOYA'
p2477
S'Harold'
p2478
tp2479
(dp2480
S'Otto'
p2481
I2
ss(g1072
S'Intelligence'
p2482
tp2483
(dp2484
S'summaries.'
p2485
I1
ss(S'RICHARDS'
p2486
g16
tp2487
(dp2488
S'Miscellaneous'
p2489
I1
ss(S'FALLIS,'
p2490
g2003
tp2491
(dp2492
g1065
I1
ss(g260
S'HEALY,'
p2493
tp2494
(dp2495
g1084
I1
ss(g260
S'Report'
p2496
tp2497
(dp2498
S'of'
p2499
I5
ss(S'South'
p2500
S'Sydney,'
p2501
tp2502
(dp2503
S'Branch'
p2504
I1
ss(g260
S'Police'
p2505
tp2506
(dp2507
S'training'
p2508
I1
ss(g16
g1306
tp2509
(dp2510
g1307
I2
sS'file'
p2511
I1
ss(g2332
S'Branch'
p2512
tp2513
(dp2514
g34
I1
ss(g705
g1628
tp2515
(dp2516
g1629
I1
ss(S'for'
p2517
S'Ugandan'
p2518
tp2519
(dp2520
S'Asians'
p2521
I1
ss(S'on'
p2522
S'Jakarta'
p2523
tp2524
(dp2525
S'Riots'
p2526
I1
ss(S'Staff'
p2527
S'for'
p2528
tp2529
(dp2530
S'discussions'
p2531
I1
ss(g260
S'Democratic'
p2532
tp2533
(dp2534
S'Republic'
p2535
I1
ss(S'SEATO'
p2536
S'plans'
p2537
tp2538
(dp2539
S'in'
p2540
I1
ss(g1191
g1194
tp2541
(dp2542
S'States'
p2543
I1
ss(g260
S'Hong'
p2544
tp2545
(dp2546
S'Kong'
p2547
I2
ss(g260
g63
tp2548
(dp2549
g64
I2
ss(g16
S'Volume'
p2550
tp2551
(dp2552
g39
I4
sS'3'
p2553
I1
sS'2'
p2554
I1
sg695
I1
ss(g260
S'Phyllis'
p2555
tp2556
(dp2557
S'LATONA'
p2558
I1
ss(S'Nations'
p2559
S'Anglo'
p2560
tp2561
(dp2562
S'Argentine'
p2563
I1
ss(S'warfare'
p2564
g2339
tp2565
(dp2566
g2340
I1
ss(g16
g748
tp2567
(dp2568
S'of'
p2569
I1
sg1471
I1
ss(S'3:'
p2570
S'1.'
p2571
tp2572
(dp2573
S'Assessments'
p2574
I1
ss(S'Australia.'
p2575
S'Eureka'
p2576
tp2577
(dp2578
S'Youth'
p2579
I1
ss(S'and'
p2580
S'maintenance'
p2581
tp2582
(dp2583
S'of'
p2584
I1
ss(g260
S'European'
p2585
tp2586
(dp2587
S'Permanent'
p2588
I2
ss(S'Appointment'
p2589
S'of'
p2590
tp2591
(dp2592
S'an'
p2593
I1
ss(S'Treaty'
p2594
S'area.'
p2595
tp2596
(dp2597
S'Collated'
p2598
I2
ss(S'Zelm,'
p2599
S'Rudolf'
p2600
tp2601
(dp2602
g34
I1
ss(S'activities'
p2603
S'May,'
p2604
tp2605
(dp2606
g1227
I1
ss(S'Decision'
p2607
g1742
tp2608
(dp2609
g34
I1
ss(g1098
g1101
tp2610
(dp2611
g384
I1
ss(g986
g989
tp2612
(dp2613
g2438
I1
ss(g1300
S'of'
p2614
tp2615
(dp2616
S'Chemical'
p2617
I1
ss(g16
g2316
tp2618
(dp2619
g2317
I1
ss(g1970
S'Meeting'
p2620
tp2621
(dp2622
g34
I1
ss(S'Communist'
p2623
S'propaganda'
p2624
tp2625
(dp2626
g34
I3
ss(S'Blaz'
p2627
S'Rover'
p2628
tp2629
(dp2630
g16
I1
ss(g2412
g1136
tp2631
(dp2632
g16
I1
ss(g2574
g1585
tp2633
(dp2634
g1586
I1
ss(S'Foreign'
p2635
g877
tp2636
(dp2637
S'and'
p2638
I1
sg878
I1
sg1236
I1
sS'papers'
p2639
I1
sS'to'
p2640
I1
ss(S'from'
p2641
S'archives'
p2642
tp2643
(dp2644
S'on'
p2645
I1
ss(g16
g2395
tp2646
(dp2647
g2396
I1
ss(S'Jul'
p2648
S'1936'
p2649
tp2650
(dp2651
g34
I1
ss(g260
g1215
tp2652
(dp2653
g1216
I1
sg16
I2
ss(S'Australia.'
p2654
S'Eastwood'
p2655
tp2656
(dp2657
S'Branch'
p2658
I1
ss(g119
g122
tp2659
(dp2660
S'127,'
p2661
I1
ss(g564
g567
tp2662
(dp2663
g1462
I1
ss(S'of'
p2664
S'BfV'
p2665
tp2666
(dp2667
S'document'
p2668
I1
ss(S'Military'
p2669
g2079
tp2670
(dp2671
g2080
I1
ss(S'South'
p2672
g2028
tp2673
(dp2674
S'West'
p2675
I1
sS'Gas'
p2676
I1
sS'Schools'
p2677
I1
sg1975
I1
sg2655
I1
sS'Edwardstown'
p2678
I1
ss(g260
S'Australian'
p2679
tp2680
(dp2681
S'Institute'
p2682
I1
sg651
I1
sg1886
I1
ss(S'an'
p2683
S'Air'
p2684
tp2685
(dp2686
g2160
I3
ss(g260
S'Ivan'
p2687
tp2688
(dp2689
S'Fedorovich'
p2690
I1
ss(S'Intelligence'
p2691
S'requests'
p2692
tp2693
(dp2694
S'for'
p2695
I1
ss(g2018
g2021
tp2696
(dp2697
S'Establishing'
p2698
I1
ss(S'volume'
p2699
S'8'
p2700
tp2701
(dp2702
g34
I1
ss(S'Japanese'
p2703
S'crops'
p2704
tp2705
(dp2706
g34
I1
sS'in'
p2707
I2
ss(S'Protective'
p2708
S'Forces'
p2709
tp2710
(dp2711
g118
I1
ss(S'of'
p2712
g625
tp2713
(dp2714
g626
I1
ss(g260
S'Leading'
p2715
tp2716
(dp2717
S'Government'
p2718
I1
ss(g16
S'Briefing'
p2719
tp2720
(dp2721
S'material'
p2722
I1
ss(S'Edgar'
p2723
g16
tp2724
(dp2725
S'Volume'
p2726
I1
ss(g16
S'NSW'
p2727
tp2728
(dp2729
S'Star'
p2730
I1
ss(S'Personnel'
p2731
S'Vetting'
p2732
tp2733
(dp2734
S'Department'
p2735
I1
ss(g16
g2310
tp2736
(dp2737
g2311
I1
ss(S'Alfred'
p2738
g2723
tp2739
(dp2740
g16
I1
ss(g702
g705
tp2741
(dp2742
g1628
I1
ss(S'libraries'
p2743
g16
tp2744
(dp2745
g35
I1
ss(g963
g966
tp2746
(dp2747
S'document'
p2748
I1
sg16
I2
sS'-document'
p2749
I1
ss(S'Russian'
p2750
S'Participation'
p2751
tp2752
(dp2753
g34
I1
ss(g2233
g2236
tp2754
(dp2755
S'LATONA'
p2756
I1
ss(S'Dr'
p2757
S'Rysard'
p2758
tp2759
(dp2760
S'Stanislaw'
p2761
I1
ss(S'Foreign'
p2762
S'aid'
p2763
tp2764
(dp2765
S'to'
p2766
I1
sg34
I1
ss(g16
S'Kensington'
p2767
tp2768
(dp2769
S'branch'
p2770
I1
ss(g16
S'Geneva'
p2771
tp2772
(dp2773
g2196
I1
ss(S'US'
p2774
S'Service'
p2775
tp2776
(dp2777
S'Attache.'
p2778
I1
ss(g2107
S'correspondence'
p2779
tp2780
(dp2781
S'between'
p2782
I1
ss(g251
g254
tp2783
(dp2784
g34
I1
ss(S'Indonesia'
p2785
g16
tp2786
(dp2787
S'Situation'
p2788
I1
sS'Australia'
p2789
I2
sS'Political'
p2790
I2
sS'Relations'
p2791
I2
sg2762
I2
sS'Activity'
p2792
I1
sS'International'
p2793
I1
sS'Australian'
p2794
I1
sS'Armed'
p2795
I1
ss(S'National'
p2796
S'Intelligence'
p2797
tp2798
(dp2799
S'Committee'
p2800
I1
ss(S'Geddes,'
p2801
S'Herbert'
p2802
tp2803
(dp2804
g1614
I1
ss(S'Boot'
p2805
S'Trade'
p2806
tp2807
(dp2808
S'Branch'
p2809
I1
ss(S'inter-relations'
p2810
S'between'
p2811
tp2812
(dp2813
S'Communist'
p2814
I1
ss(S'Supplement'
p2815
g2554
tp2816
(dp2817
g34
I1
ss(g1467
g1470
tp2818
(dp2819
g372
I1
ss(g2021
g2698
tp2820
(dp2821
g2683
I3
ss(S'5.'
p2822
S'Selections'
p2823
tp2824
(dp2825
S'of'
p2826
I1
ss(g2687
g2690
tp2827
(dp2828
S'SKRIPOV,'
p2829
I1
ss(g16
g2135
tp2830
(dp2831
g2136
I1
ss(g1292
S'Joint'
p2832
tp2833
(dp2834
S'Intelligence'
p2835
I1
ss(S'London'
p2836
S'January'
p2837
tp2838
(dp2839
S'1951'
p2840
I1
ss(S'Sydney.'
p2841
S'THOMPSON,'
p2842
tp2843
(dp2844
S'Lachlan'
p2845
I1
ss(S'False'
p2846
S'witness'
p2847
tp2848
(dp2849
g34
I1
ss(S'States'
p2850
g16
tp2851
(dp2852
S'Australia'
p2853
I1
ss(S'East'
p2854
S'and'
p2855
tp2856
(dp2857
S'South'
p2858
I1
ss(S'Percival'
p2859
S'LAIDLER'
p2860
tp2861
(dp2862
g34
I1
ss(g260
S'Croation'
p2863
tp2864
(dp2865
S'Terrorism:'
p2866
I1
ss(g1864
g2382
tp2867
(dp2868
g2383
I1
ss(S'Intelligence'
p2869
S'assessment'
p2870
tp2871
(dp2872
g34
I1
ss(S'status'
p2873
g16
tp2874
(dp2875
S'Tasmania'
p2876
I1
ss(S'Cadres'
p2877
g837
tp2878
(dp2879
g838
I1
ss(S'removed'
p2880
g2641
tp2881
(dp2882
g2642
I1
ss(S'Intelligence:'
p2883
S'Czechoslovak'
p2884
tp2885
(dp2886
S'Ministry'
p2887
I1
ss(S'Capital'
p2888
S'Territory'
p2889
tp2890
(dp2891
g1433
I1
ss(g720
g723
tp2892
(dp2893
S'ROBERTS'
p2894
I1
ss(S'of'
p2895
g1147
tp2896
(dp2897
g1148
I2
ss(S'and'
p2898
S'national'
p2899
tp2900
(dp2901
g135
I1
ss(g2695
S'information'
p2902
tp2903
(dp2904
g34
I1
ss(S'SA2194'
p2905
g16
tp2906
(dp2907
g1925
I1
ss(S'North'
p2908
g1561
tp2909
(dp2910
g34
I2
sg16
I1
ss(g260
S'Audrey'
p2911
tp2912
(dp2913
S'Elsie'
p2914
I1
ss(S'Regional'
p2915
S'Defence'
p2916
tp2917
(dp2918
g16
I1
ss(g16
S'probable'
p2919
tp2920
(dp2921
g912
I1
ss(g1575
g1578
tp2922
(dp2923
S'Courses'
p2924
I1
ss(g2306
g2309
tp2925
(dp2926
g16
I2
ss(S'of'
p2927
S'yard'
p2928
tp2929
(dp2930
S'entrance'
p2931
I1
ss(g2845
g2108
tp2932
(dp2933
g1061
I1
ss(g1750
g1753
tp2934
(dp2935
g34
I1
ss(S'the'
p2936
g1565
tp2937
(dp2938
g1566
I1
ss(g16
S'educational'
p2939
tp2940
(dp2941
S'&'
p2942
I1
ss(g260
S'Estimates'
p2943
tp2944
(dp2945
S'1957-1958'
p2946
I1
ss(g225
S'of'
p2947
tp2948
(dp2949
g1986
I1
ss(S'Judah'
p2950
S'WATEN'
p2951
tp2952
(dp2953
S'volume'
p2954
I1
ss(g376
g379
tp2955
(dp2956
g16
I1
ss(S'NSW,'
p2957
S'West'
p2958
tp2959
(dp2960
g352
I1
ss(g2951
g2954
tp2961
(dp2962
g364
I1
ss(g1208
S'objectives.'
p2963
tp2964
(dp2965
S'Collated'
p2966
I1
ss(g260
S'Codewords'
p2967
tp2968
(dp2969
S'and'
p2970
I1
ss(g260
S'Reverend'
p2971
tp2972
(dp2973
g706
I1
ss(g16
S'relations'
p2974
tp2975
(dp2976
S'with'
p2977
I1
ss(S'Communist'
p2978
g424
tp2979
(dp2980
g16
I1
ss(S'CPA'
p2981
S'Qld'
p2982
tp2983
(dp2984
g16
I1
sg569
I1
ss(g1368
g1371
tp2985
(dp2986
S'Magazine'
p2987
I1
ss(g1386
g1389
tp2988
(dp2989
g1484
I1
ss(g2301
S'energy'
p2990
tp2991
(dp2992
g34
I1
ss(S'Policy'
p2993
g16
tp2994
(dp2995
S'General'
p2996
I1
ss(S'and'
p2997
S'highlights'
p2998
tp2999
(dp3000
S'in'
p3001
I3
ss(S'prepared'
p3002
S'for'
p3003
tp3004
(dp3005
S'use'
p3006
I1
ss(S'co-ordination'
p3007
S'arrangements'
p3008
tp3009
(dp3010
g34
I1
ss(g260
S'Submission'
p3011
tp3012
(dp3013
S'by'
p3014
I1
ss(g2595
g2598
tp3015
(dp3016
S'paper'
p3017
I2
ss(S'Financial'
p3018
g81
tp3019
(dp3020
g82
I1
ss(S'MPO'
p3021
S'Plan'
p3022
tp3023
(dp3024
g648
I1
sS'4/60'
p3025
I1
ss(g16
S'Protection'
p3026
tp3027
(dp3028
S'of'
p3029
I1
ss(g1371
g2987
tp3030
(dp3031
g34
I1
ss(g2942
S'labour'
p3032
tp3033
(dp3034
S'activities'
p3035
I1
ss(S'Reporting'
p3036
S'on'
p3037
tp3038
(dp3039
S'Developments'
p3040
I1
ss(g465
g16
tp3041
(dp3042
g189
I1
sS'document'
p3043
I1
ss(S'Discussions'
p3044
S'between'
p3045
tp3046
(dp3047
S'Indonesia'
p3048
I1
ss(g1338
g1341
tp3049
(dp3050
S'Italy'
p3051
I1
ss(g2499
g2423
tp3052
(dp3053
S'Logistics'
p3054
I1
sS'United'
p3055
I1
sg2424
I1
sS'Interior'
p3056
I1
sS'intelligence'
p3057
I1
sS'committee'
p3058
I2
sg242
I1
sg537
I1
sS'Communications'
p3059
I1
sS'Seabed'
p3060
I1
sg672
I1
sS'Council'
p3061
I2
sS'Intelligence'
p3062
I1
sS'Russian'
p3063
I1
sg483
I2
sS'meeting'
p3064
I1
sS'Australian'
p3065
I3
ss(S'Defence'
p3066
g1390
tp3067
(dp3068
g1391
I1
sg34
I1
ss(g1659
g231
tp3069
(dp3070
g232
I2
ss(g260
S'A'
p3071
tp3072
(dp3073
S'summary'
p3074
I1
ss(g631
g634
tp3075
(dp3076
g16
I1
ss(g1602
g1605
tp3077
(dp3078
S'CLARKE'
p3079
I1
ss(S'Supp'
p3080
g39
tp3081
(dp3082
g34
I1
ss(g260
S'Chemical'
p3083
tp3084
(dp3085
g2564
I1
ss(g16
g2788
tp3086
(dp3087
S'reports'
p3088
I1
ss(S'and'
p3089
g1985
tp3090
(dp3091
S'arrangements'
p3092
I1
sg16
I1
ss(S'in'
p3093
g2836
tp3094
(dp3095
g2837
I1
ss(S'South'
p3096
S'Coast,'
p3097
tp3098
(dp3099
S'Volume'
p3100
I1
ss(g1274
S'Branch'
p3101
tp3102
(dp3103
g34
I1
ss(g16
g600
tp3104
(dp3105
S'Harbour'
p3106
I1
ss(g2098
S'of'
p3107
tp3108
(dp3109
S'joint'
p3110
I1
ss(S'Area'
p3111
S'N.T.'
p3112
tp3113
(dp3114
g34
I1
ss(S'item'
p3115
S'2b.'
p3116
tp3117
(dp3118
g802
I1
ss(g2823
g2826
tp3119
(dp3120
g1109
I1
ss(g16
S'Malleys,'
p3121
tp3122
(dp3123
g2500
I1
ss(g260
S'Arab'
p3124
tp3125
(dp3126
g2469
I1
ss(g1132
g1135
tp3127
(dp3128
S'South'
p3129
I1
ss(S'Meeting'
p3130
S'MPO'
p3131
tp3132
(dp3133
g647
I1
ss(S'Cabinet'
p3134
g1903
tp3135
(dp3136
S'1985'
p3137
I1
sg44
I1
ss(S'information'
p3138
S'for'
p3139
tp3140
(dp3141
S'SEAMIL'
p3142
I1
ss(g1311
g1314
tp3143
(dp3144
g2129
I3
ss(S'SCIS'
p3145
S'Report'
p3146
tp3147
(dp3148
S'to'
p3149
I1
ss(S'strategic'
p3150
S'metals'
p3151
tp3152
(dp3153
S'from'
p3154
I1
ss(g1121
S'5/59'
p3155
tp3156
(dp3157
g34
I1
ss(S'policies'
p3158
S'1959-1964'
p3159
tp3160
(dp3161
g34
I1
ss(S'on'
p3162
S'Croatians'
p3163
tp3164
(dp3165
S'October'
p3166
I1
ss(S'GOODE'
p3167
S'Mrs'
p3168
tp3169
(dp3170
g2427
I1
ss(g1770
g1292
tp3171
(dp3172
S'Destruction'
p3173
I1
ss(g305
S'Organization'
p3174
tp3175
(dp3176
S'Military'
p3177
I3
sS'force'
p3178
I1
sg16
I2
ss(g16
S'1972'
p3179
tp3180
(dp3181
g34
I1
ss(S'for'
p3182
g143
tp3183
(dp3184
g16
I1
ss(S'SEATO'
p3185
S'Council'
p3186
tp3187
(dp3188
S'representations'
p3189
I1
sS'1957'
p3190
I1
sg2188
I1
ss(S'with'
p3191
S'Saudi'
p3192
tp3193
(dp3194
S'Arabia'
p3195
I1
ss(S'Conference,'
p3196
S'Washington,'
p3197
tp3198
(dp3199
S'May'
p3200
I1
ss(g1216
g1219
tp3201
(dp3202
g34
I1
ss(g16
g1333
tp3203
(dp3204
g1334
I1
ss(g944
S'relations'
p3205
tp3206
(dp3207
g16
I1
ss(g2727
g2730
tp3208
(dp3209
S'Branch'
p3210
I1
ss(S'Conference'
p3211
S'Report'
p3212
tp3213
(dp3214
S'1955'
p3215
I1
ss(S'Abroad:'
p3216
S'An'
p3217
tp3218
(dp3219
S'Analysis'
p3220
I1
ss(S'ASIO'
p3221
g16
tp3222
(dp3223
S'The'
p3224
I1
ss(g2638
S'Joint'
p3225
tp3226
(dp3227
S'Intelligence'
p3228
I1
ss(S'Adelaide'
p3229
S'Branch'
p3230
tp3231
(dp3232
g34
I1
ss(g260
S'Srecko'
p3233
tp3234
(dp3235
g1342
I1
ss(S'Base,'
p3236
S'Oct'
p3237
tp3238
(dp3239
S'1936'
p3240
I1
ss(S'243/1947'
p3241
g1292
tp3242
(dp3243
S'Exchange'
p3244
I1
ss(S'Nancy'
p3245
S'Glen'
p3246
tp3247
(dp3248
S'and'
p3249
I1
ss(S'classes'
p3250
S'for'
p3251
tp3252
(dp3253
S'police'
p3254
I1
ss(g319
g322
tp3255
(dp3256
g34
I1
ss(g2092
g2297
tp3257
(dp3258
g2267
I1
ss(g1706
g908
tp3259
(dp3260
g16
I1
sS'Constitution'
p3261
I1
ss(g260
g1624
tp3262
(dp3263
g16
I1
ss(g144
S'defence'
p3264
tp3265
(dp3266
S'of'
p3267
I2
ss(g346
g2422
tp3268
(dp3269
g34
I1
ss(g675
S'to'
p3270
tp3271
(dp3272
S'Australia'
p3273
I1
ss(S'1551'
p3274
g2372
tp3275
(dp3276
g2175
I1
ss(g16
g1648
tp3277
(dp3278
g16
I1
ss(g62
S'best'
p3279
tp3280
(dp3281
S'class'
p3282
I1
ss(g1713
g1112
tp3283
(dp3284
g1113
I1
ss(g959
g962
tp3285
(dp3286
S'Rail'
p3287
I1
ss(S'screening'
p3288
g16
tp3289
(dp3290
S'Sweden'
p3291
I1
sS'Malta'
p3292
I1
ss(g2715
g2718
tp3293
(dp3294
S'and'
p3295
I1
ss(g2899
g135
tp3296
(dp3297
g136
I1
ss(g2550
g39
tp3298
(dp3299
g34
I10
sg1186
I1
ss(g2080
g2084
tp3300
(dp3301
S'Manila'
p3302
I1
ss(g16
g3145
tp3303
(dp3304
g3146
I1
ss(g1139
g1182
tp3305
(dp3306
S'30/6/42'
p3307
I1
sS'31/3/41'
p3308
I1
ss(S'Yugoslav'
p3309
S'in'
p3310
tp3311
(dp3312
S'Act'
p3313
I1
ss(S'Wales,'
p3314
g1731
tp3315
(dp3316
g2400
I1
ss(g260
S'Australia-Portugal'
p3317
tp3318
(dp3319
g16
I1
ss(S'of'
p3320
S'secret'
p3321
tp3322
(dp3323
g25
I1
ss(g2977
S'Communist'
p3324
tp3325
(dp3326
S'Party'
p3327
I1
ss(S'NSW'
p3328
g1613
tp3329
(dp3330
S'Branch'
p3331
I1
ss(g1998
S'activity'
p3332
tp3333
(dp3334
g34
I1
ss(g260
g739
tp3335
(dp3336
g1467
I1
sg558
I1
sg16
I13
sg3186
I2
sS'12th'
p3337
I1
ss(g2358
S'Staff'
p3338
tp3339
(dp3340
S'Planners'
p3341
I1
ss(g260
g2757
tp3342
(dp3343
g618
I1
sg2758
I1
ss(g1020
g1023
tp3344
(dp3345
g2465
I1
ss(g267
S'South'
p3346
tp3347
(dp3348
S'East'
p3349
I1
ss(g681
g684
tp3350
(dp3351
S'Vol.4'
p3352
I1
ss(S'New'
p3353
g1537
tp3354
(dp3355
g16
I2
ss(g662
S'with'
p3356
tp3357
(dp3358
g975
I1
sS'Australia'
p3359
I6
sS'USA'
p3360
I1
sS'Singapore'
p3361
I1
sS'India'
p3362
I1
sS'China'
p3363
I1
sS'Thailand'
p3364
I1
sg474
I1
sg1171
I1
sS'South'
p3365
I1
ss(S'Council'
p3366
g3189
tp3367
(dp3368
g34
I1
ss(g16
S'Activities'
p3369
tp3370
(dp3371
S'of'
p3372
I1
ss(g3071
g3074
tp3373
(dp3374
S'of'
p3375
I1
ss(S'drawing'
p3376
g2905
tp3377
(dp3378
g16
I1
ss(S'Boyle'
p3379
g1044
tp3380
(dp3381
g1045
I1
ss(g1003
S'to'
p3382
tp3383
(dp3384
g1005
I1
ss(g1209
S'volume'
p3385
tp3386
(dp3387
g2554
I1
ss(g260
S'Importance'
p3388
tp3389
(dp3390
g164
I1
ss(g260
S'Brief'
p3391
tp3392
(dp3393
S'for'
p3394
I2
ss(S'Lists'
p3395
g1940
tp3396
(dp3397
g1941
I1
ss(S'to'
p3398
S'British'
p3399
tp3400
(dp3401
g425
I1
ss(S'mines'
p3402
S'and'
p3403
tp3404
(dp3405
S'RCMP'
p3406
I2
ss(g260
g2180
tp3407
(dp3408
g2181
I1
ss(g2192
S'Daily'
p3409
tp3410
(dp3411
S'verbatim'
p3412
I1
ss(S'Teleradio'
p3413
g16
tp3414
(dp3415
S'Ocean'
p3416
I1
ss(g1056
S'priorities'
p3417
tp3418
(dp3419
g1281
I1
sg34
I2
ss(g16
S'exchange'
p3420
tp3421
(dp3422
S'of'
p3423
I1
ss(S'introduction'
p3424
g2580
tp3425
(dp3426
g2581
I1
ss(g937
g2289
tp3427
(dp3428
g3274
I1
ss(g16
g2391
tp3429
(dp3430
S'in'
p3431
I1
ss(g16
g2750
tp3432
(dp3433
g2751
I1
ss(S'Timor,'
p3434
g2822
tp3435
(dp3436
g2823
I1
ss(g730
g733
tp3437
(dp3438
S'of'
p3439
I1
ss(g2253
g2256
tp3440
(dp3441
g1286
I1
ss(S'aircraft'
p3442
S'and'
p3443
tp3444
(dp3445
S'Nomad'
p3446
I1
ss(g16
S'Foreign'
p3447
tp3448
(dp3449
g2272
I3
sg2763
I2
sS'relations'
p3450
I1
sg1259
I1
ss(S'taken'
p3451
g995
tp3452
(dp3453
g996
I1
ss(S'part'
p3454
g39
tp3455
(dp3456
g16
I1
ss(S'against'
p3457
S'the'
p3458
tp3459
(dp3460
g1724
I1
ss(S'in'
p3461
S'Burma'
p3462
tp3463
(dp3464
g34
I1
ss(S'OMMUNDSON'
p3465
S'Frederick'
p3466
tp3467
(dp3468
g34
I1
ss(S'Council'
p3469
S'meeting'
p3470
tp3471
(dp3472
g16
I1
ss(S'Bank'
p3473
S'of'
p3474
tp3475
(dp3476
S'Australia'
p3477
I1
ss(g898
S'Timor,'
p3478
tp3479
(dp3480
g2822
I1
sS'3.'
p3481
I1
ss(g362
S'East'
p3482
tp3483
(dp3484
g302
I6
sS'Asia'
p3485
I6
ss(S'Security'
p3486
g3288
tp3487
(dp3488
g16
I2
sS'procedure'
p3489
I1
ss(S'raw'
p3490
S'materials'
p3491
tp3492
(dp3493
g34
I1
ss(g2763
g2766
tp3494
(dp3495
S'Indonesia'
p3496
I1
sS'North'
p3497
I1
ss(S'Indications'
p3498
g1328
tp3499
(dp3500
g1329
I1
ss(S'Australian'
p3501
g2461
tp3502
(dp3503
g2462
I2
ss(S'of'
p3504
S'meeting'
p3505
tp3506
(dp3507
g16
I2
ss(g1461
S'BLACKBURN'
p3508
tp3509
(dp3510
g34
I1
ss(g16
S'Srcko'
p3511
tp3512
(dp3513
g2627
I1
ss(g2928
g2931
tp3514
(dp3515
S'gate'
p3516
I1
ss(g873
g876
tp3517
(dp3518
g16
I1
ss(g1611
S'Branch'
p3519
tp3520
(dp3521
g34
I1
ss(g3043
S'6'
p3522
tp3523
(dp3524
g34
I1
ss(S'against'
p3525
g2093
tp3526
(dp3527
g16
I2
ss(S'and'
p3528
g2936
tp3529
(dp3530
g451
I1
sg1565
I1
ss(g3251
g3254
tp3531
(dp3532
S'officers'
p3533
I1
ss(g2585
g2588
tp3534
(dp3535
g1824
I2
ss(g16
S'Reciprocal'
p3536
tp3537
(dp3538
S'social'
p3539
I1
ss(S'problem'
p3540
S'of'
p3541
tp3542
(dp3543
S'Establishing'
p3544
I2
ss(g1271
g1274
tp3545
(dp3546
g3101
I1
ss(S'Bangkok'
p3547
S'Nov'
p3548
tp3549
(dp3550
S'1959'
p3551
I1
ss(g260
g1811
tp3552
(dp3553
g1812
I1
sg1211
I1
ss(g1049
g1028
tp3554
(dp3555
g1029
I1
ss(S'security'
p3556
S'agreements.'
p3557
tp3558
(dp3559
S'Information'
p3560
I1
ss(S'Evasion'
p3561
g954
tp3562
(dp3563
g955
I1
ss(g16
g1760
tp3564
(dp3565
S'Green'
p3566
I1
ss(g2943
g2946
tp3567
(dp3568
g34
I1
ss(g1088
g1091
tp3569
(dp3570
g1480
I1
ss(g557
g3130
tp3571
(dp3572
g3131
I1
sg16
I1
ss(S'of'
p3573
g856
tp3574
(dp3575
g857
I1
ss(S'Indonesia.'
p3576
g1509
tp3577
(dp3578
g1510
I1
ss(S'Intelligence'
p3579
S'Service'
p3580
tp3581
(dp3582
S'in'
p3583
I1
ss(S'Antarctic'
p3584
g16
tp3585
(dp3586
S'Heard'
p3587
I1
sS'International'
p3588
I1
ss(g509
S'Branch'
p3589
tp3590
(dp3591
g34
I1
ss(S'South'
p3592
S'Australian'
p3593
tp3594
(dp3595
S'architectural'
p3596
I1
ss(g1316
g755
tp3597
(dp3598
g756
I1
ss(g260
S'South'
p3599
tp3600
(dp3601
g3593
I1
sg301
I6
sS'Vietnam'
p3602
I1
sg1654
I1
ss(S'Waterfront'
p3603
S'Tasmania.'
p3604
tp3605
(dp3606
g34
I1
ss(g433
S'Portuguese'
p3607
tp3608
(dp3609
g3434
I1
ss(g2465
g2468
tp3610
(dp3611
S'contributed'
p3612
I1
ss(g1307
g1310
tp3613
(dp3614
g34
I2
ss(g260
S'Washington'
p3615
tp3616
(dp3617
g933
I1
ss(g16
S'14th'
p3618
tp3619
(dp3620
S'Conference'
p3621
I1
ss(S'of'
p3622
S'Indonesia.'
p3623
tp3624
(dp3625
g34
I1
ss(g3356
g3359
tp3626
(dp3627
g34
I1
sg16
I5
ss(S"India's"
p3628
S'financial'
p3629
tp3630
(dp3631
S'problems'
p3632
I1
ss(g1578
g2924
tp3633
(dp3634
S'of'
p3635
I1
ss(g124
g16
tp3636
(dp3637
S'Memorandum'
p3638
I1
ss(S'by'
p3639
S'Thailand'
p3640
tp3641
(dp3642
g34
I1
ss(S'Foreign'
p3643
g3450
tp3644
(dp3645
g16
I1
ss(S'East'
p3646
S'Intelligence'
p3647
tp3648
(dp3649
S'and'
p3650
I2
ss(g260
S'US'
p3651
tp3652
(dp3653
g184
I1
ss(g260
g941
tp3654
(dp3655
g16
I1
ss(g2531
S'with'
p3656
tp3657
(dp3658
S'NZ'
p3659
I1
ss(S'of'
p3660
S'Australia'
p3661
tp3662
(dp3663
g34
I2
sg16
I65
sS'Plans'
p3664
I1
sg1302
I1
ss(g260
S'CPA'
p3665
tp3666
(dp3667
g438
I1
sg2982
I2
sg1477
I1
ss(g1971
g3064
tp3668
(dp3669
g34
I1
ss(S'intelligence'
p3670
S'summaries'
p3671
tp3672
(dp3673
S'1958'
p3674
I1
ss(g16
g2460
tp3675
(dp3676
g16
I1
ss(g1432
g1580
tp3677
(dp3678
g1581
I1
ss(S'Victor'
p3679
S'Gerald,'
p3680
tp3681
(dp3682
S'MONTOYA'
p3683
I2
ss(g1400
g1403
tp3684
(dp3685
S'Canada'
p3686
I1
ss(S'Commonwealth'
p3687
S'Party'
p3688
tp3689
(dp3690
S'of'
p3691
I1
ss(g260
g1266
tp3692
(dp3693
g1267
I1
ss(g150
g153
tp3694
(dp3695
S'US'
p3696
I1
ss(g16
g868
tp3697
(dp3698
g869
I1
ss(g16
g2128
tp3699
(dp3700
S'disturbances'
p3701
I1
ss(g260
S'FREESTONE,'
p3702
tp3703
(dp3704
S'Robert'
p3705
I1
ss(g1758
g2134
tp3706
(dp3707
g34
I1
ss(S'Ronald'
p3708
S'William'
p3709
tp3710
(dp3711
S'NEAVE'
p3712
I1
ss(g16
S'Pakistan'
p3713
tp3714
(dp3715
g34
I1
ss(g2837
g2840
tp3716
(dp3717
g34
I1
ss(g3212
g3215
tp3718
(dp3719
S'on'
p3720
I1
ss(S'Branch'
p3721
S'Volume'
p3722
tp3723
(dp3724
g39
I1
ss(g916
g1574
tp3725
(dp3726
S'attack'
p3727
I3
ss(S'1958'
p3728
S'and'
p3729
tp3730
(dp3731
S'Washington,'
p3732
I1
ss(S'and'
p3733
S'forged'
p3734
tp3735
(dp3736
S'currency'
p3737
I1
ss(S'June,'
p3738
S'1951.'
p3739
tp3740
(dp3741
S'Correspondence'
p3742
I1
ss(S'Australia.'
p3743
S'Western'
p3744
tp3745
(dp3746
S'Australia,'
p3747
I2
sS'Australia.'
p3748
I1
ss(g904
S'Matter'
p3749
tp3750
(dp3751
g34
I1
ss(g2256
g1286
tp3752
(dp3753
g1287
I1
ss(g3727
S'against'
p3754
tp3755
(dp3756
g1672
I1
sg2093
I2
ss(S'Number'
p3757
S'17/1947'
p3758
tp3759
(dp3760
g1292
I1
ss(g260
g1891
tp3761
(dp3762
g1892
I1
ss(S'Functions'
p3763
g1345
tp3764
(dp3765
g1346
I4
ss(g260
S'Traffic'
p3766
tp3767
(dp3768
g1376
I2
ss(g829
g832
tp3769
(dp3770
g3191
I1
ss(g1290
S'Power'
p3771
tp3772
(dp3773
S'Planners'
p3774
I1
ss(g260
S'Thomas'
p3775
tp3776
(dp3777
g2859
I1
ss(g16
S'general'
p3778
tp3779
(dp3780
g34
I1
ss(S'Branches'
p3781
g2957
tp3782
(dp3783
g2958
I1
sg1319
I1
sg1720
I1
ss(S'unconventional'
p3784
S'warfare'
p3785
tp3786
(dp3787
g34
I1
ss(g2771
g2196
tp3788
(dp3789
g434
I1
ss(S'Vale'
p3790
S'Branch.'
p3791
tp3792
(dp3793
g34
I1
ss(S'No.'
p3794
S'1/66'
p3795
tp3796
(dp3797
g34
I1
ss(S'potential'
p3798
S'1953-1956'
p3799
tp3800
(dp3801
g34
I1
ss(g2963
g2966
tp3802
(dp3803
S'paper'
p3804
I1
ss(g16
S'Organization,'
p3805
tp3806
(dp3807
g2873
I1
ss(g260
S'John'
p3808
tp3809
(dp3810
S'Kurt'
p3811
I1
sg2321
I1
ss(g1731
g2400
tp3812
(dp3813
g2401
I1
ss(g832
g3191
tp3814
(dp3815
g3324
I1
sS'other'
p3816
I1
sg3192
I1
ss(g16
g510
tp3817
(dp3818
S'Section'
p3819
I1
ss(g361
S'communications'
p3820
tp3821
(dp3822
S'in'
p3823
I1
ss(g2790
g16
tp3824
(dp3825
g2167
I8
ss(S'the'
p3826
g537
tp3827
(dp3828
g538
I1
ss(g3249
S'Hector'
p3829
tp3830
(dp3831
S'Alan'
p3832
I1
ss(g260
S'Interdepartmental'
p3833
tp3834
(dp3835
S'committee'
p3836
I1
ss(g16
S'Victoria,'
p3837
tp3838
(dp3839
S'Schools'
p3840
I1
ss(S'South-East'
p3841
S'Asia'
p3842
tp3843
(dp3844
S'Collective'
p3845
I1
sS'in'
p3846
I1
sg1000
I2
ss(g1849
g1852
tp3847
(dp3848
S'Laos'
p3849
I2
ss(S'Florencio'
p3850
S'Lopez'
p3851
tp3852
(dp3853
S'aka'
p3854
I2
ss(g1166
g1169
tp3855
(dp3856
S'for'
p3857
I1
ss(S'East.'
p3858
S'Joint'
p3859
tp3860
(dp3861
g729
I2
ss(g260
g3687
tp3862
(dp3863
g3688
I1
sg3473
I1
ss(g3197
g3200
tp3864
(dp3865
g2121
I1
ss(g16
g2328
tp3866
(dp3867
g16
I1
sS'Vicdtoria'
p3868
I1
sg404
I4
ss(g3228
S'Organization,'
p3869
tp3870
(dp3871
S'2.'
p3872
I1
ss(S'Security'
p3873
g2731
tp3874
(dp3875
g2732
I1
ss(g260
S'Deceit'
p3876
tp3877
(dp3878
g3457
I1
ss(g2690
g2829
tp3879
(dp3880
g2699
I1
ss(S'policy'
p3881
g188
tp3882
(dp3883
S'administration'
p3884
I1
ss(S'Special'
p3885
S'screening'
p3886
tp3887
(dp3888
g1337
I1
ss(g1917
g1920
tp3889
(dp3890
g34
I2
ss(S'Party'
p3891
g16
tp3892
(dp3893
S'Evolution'
p3894
I1
ss(S'Geoffrey'
p3895
S'SAWER'
p3896
tp3897
(dp3898
g34
I1
ss(S'Geneva'
p3899
S'Convention'
p3900
tp3901
(dp3902
g34
I1
ss(S'Brown'
p3903
S'17'
p3904
tp3905
(dp3906
S'December'
p3907
I1
ss(g2576
g2579
tp3908
(dp3909
S'League.'
p3910
I2
ss(g2368
g16
tp3911
(dp3912
S'Part'
p3913
I1
ss(g1633
g1636
tp3914
(dp3915
S'Branch.'
p3916
I1
ss(S'Study'
p3917
S'Group'
p3918
tp3919
(dp3920
g34
I1
ss(g2102
g3150
tp3921
(dp3922
g3151
I1
ss(g211
g3728
tp3923
(dp3924
g3729
I1
ss(g2842
g2845
tp3925
(dp3926
g2108
I1
ss(g1045
g198
tp3927
(dp3928
g199
I1
ss(g1955
g16
tp3929
(dp3930
S'Title'
p3931
I1
ss(S'Weapons'
p3932
S'development'
p3933
tp3934
(dp3935
g16
I1
ss(g260
S'Activities'
p3936
tp3937
(dp3938
S'of'
p3939
I1
ss(g569
g572
tp3940
(dp3941
g34
I1
ss(S'Communications'
p3942
g16
tp3943
(dp3944
g2018
I1
sg702
I1
sS'The'
p3945
I2
ss(g260
S'Union'
p3946
tp3947
(dp3948
S'of'
p3949
I1
ss(S'link'
p3950
S'in'
p3951
tp3952
(dp3953
g67
I6
ss(S"Director's"
p3954
g1641
tp3955
(dp3956
g1642
I1
ss(g2835
S'Bureau'
p3957
tp3958
(dp3959
g16
I2
ss(g1116
S'Volume'
p3960
tp3961
(dp3962
S'5'
p3963
I1
ss(g1738
S'Bangkok,'
p3964
tp3965
(dp3966
g318
I2
ss(g16
g2790
tp3967
(dp3968
S'and'
p3969
I1
sg16
I8
sS'Relations'
p3970
I1
sS'general'
p3971
I1
sS'Reports'
p3972
I1
sg1505
I1
ss(S'Affairs,'
p3973
S'4.'
p3974
tp3975
(dp3976
S'Records'
p3977
I1
ss(g1790
g1793
tp3978
(dp3979
g34
I1
ss(S'in'
p3980
S'Australia'
p3981
tp3982
(dp3983
g34
I3
sg16
I2
ss(S'Branches'
p3984
g16
tp3985
(dp3986
S'Victoria'
p3987
I1
ss(g3139
g3142
tp3988
(dp3989
S'purposes'
p3990
I1
ss(g19
S'of'
p3991
tp3992
(dp3993
S'Mrs'
p3994
I1
ss(g1413
g16
tp3995
(dp3996
S'Agreement'
p3997
I2
ss(S'Indicators'
p3998
g1165
tp3999
(dp4000
g1166
I1
ss(g1861
g1864
tp4001
(dp4002
g2382
I1
ss(g260
g3841
tp4003
(dp4004
g3842
I3
ss(g1285
S'STEWART'
p4005
tp4006
(dp4007
g34
I1
ss(S'item'
p4008
S'3b.'
p4009
tp4010
(dp4011
S'The'
p4012
I1
ss(S'MInisters'
p4013
S'on'
p4014
tp4015
(dp4016
S'the'
p4017
I1
ss(g1174
g16
tp4018
(dp4019
S'Part'
p4020
I1
ss(g3635
S'Action'
p4021
tp4022
(dp4023
S'in'
p4024
I1
ss(S'Station'
p4025
S'Directives'
p4026
tp4027
(dp4028
g16
I1
ss(g16
g174
tp4029
(dp4030
g175
I1
ss(S'Pacific'
p4031
g3917
tp4032
(dp4033
g3918
I1
ss(S'Kay,'
p4034
S'Helen'
p4035
tp4036
(dp4037
g34
I1
ss(S'in'
p4038
g2037
tp4039
(dp4040
g34
I2
sg2038
I1
ss(g2174
S'remittances'
p4041
tp4042
(dp4043
g34
I1
ss(S'Control'
p4044
S'Manual'
p4045
tp4046
(dp4047
g34
I1
ss(S'Australian'
p4048
g2682
tp4049
(dp4050
S'of'
p4051
I1
ss(g260
g109
tp4052
(dp4053
g110
I1
ss(g2779
g2782
tp4054
(dp4055
g894
I1
ss(g1887
g1890
tp4056
(dp4057
S'Continent'
p4058
I1
ss(S'Danish'
p4059
S'and'
p4060
tp4061
(dp4062
S'other'
p4063
I1
ss(g845
g494
tp4064
(dp4065
g495
I1
ss(g260
S'Malaysia/Singapore'
p4066
tp4067
(dp4068
S'defence'
p4069
I1
ss(g3489
g16
tp4070
(dp4071
S'Italy'
p4072
I1
ss(S'area'
p4073
S'and'
p4074
tp4075
(dp4076
g1349
I1
ss(S'radio'
p4077
S'links.'
p4078
tp4079
(dp4080
S'International'
p4081
I1
ss(S'material'
p4082
g2241
tp4083
(dp4084
g2242
I3
ss(g1581
g1584
tp4085
(dp4086
g1315
I1
ss(S'Imperial'
p4087
S'Communications.'
p4088
tp4089
(dp4090
S'March'
p4091
I1
ss(g1232
g1235
tp4092
(dp4093
g1995
I1
ss(g583
g16
tp4094
(dp4095
S'Operational'
p4096
I1
ss(S'Security'
p4097
g3573
tp4098
(dp4099
g856
I1
ss(g16
g3638
tp4100
(dp4101
g16
I1
ss(g2604
g1227
tp4102
(dp4103
g1228
I1
ss(S'Part'
p4104
g2554
tp4105
(dp4106
g34
I3
sS'1972'
p4107
I1
ss(g4020
g2553
tp4108
(dp4109
g34
I2
ss(S'Base,'
p4110
g2648
tp4111
(dp4112
g2649
I1
ss(S'Tripartite'
p4113
g690
tp4114
(dp4115
g691
I1
ss(S'Permits'
p4116
g16
tp4117
(dp4118
g1306
I2
ss(S'Australian'
p4119
S'women'
p4120
tp4121
(dp4122
g16
I1
ss(g2148
S'Western'
p4123
tp4124
(dp4125
S'Australia.'
p4126
I1
ss(g1534
g1538
tp4127
(dp4128
g16
I1
ss(g2911
g2914
tp4129
(dp4130
S'BLAKE'
p4131
I1
ss(g1627
g1505
tp4132
(dp4133
g16
I1
ss(S'151/1945'
p4134
g1292
tp4135
(dp4136
S'Destruction'
p4137
I1
ss(S'of'
p4138
S'Organization'
p4139
tp4140
(dp4141
g34
I1
ss(g16
S'Eureka'
p4142
tp4143
(dp4144
S'Youth'
p4145
I1
ss(S'agreement'
p4146
S'between'
p4147
tp4148
(dp4149
S'Australia'
p4150
I1
ss(S'USSR.'
p4151
g3932
tp4152
(dp4153
g3933
I1
ss(S'Wharf'
p4154
S'Branch'
p4155
tp4156
(dp4157
S'Victoria'
p4158
I1
ss(g754
S'of'
p4159
tp4160
(dp4161
S'passport'
p4162
I1
ss(S'early'
p4163
S'war'
p4164
tp4165
(dp4166
S'in'
p4167
I1
ss(S'economic'
p4168
S'relations'
p4169
tp4170
(dp4171
g34
I1
ss(S'Branches'
p4172
g3868
tp4173
(dp4174
g2805
I1
ss(g900
g904
tp4175
(dp4176
g3749
I1
ss(S'Sea'
p4177
S'for'
p4178
tp4179
(dp4180
S'the'
p4181
I1
ss(g260
S'457/1946'
p4182
tp4183
(dp4184
g1292
I1
ss(g173
S'STRONG'
p4185
tp4186
(dp4187
g1292
I1
ss(g4181
g2149
tp4188
(dp4189
g2150
I1
ss(g16
S'activities'
p4190
tp4191
(dp4192
S'in'
p4193
I1
ss(S'goods'
p4194
g3733
tp4195
(dp4196
g3734
I1
ss(S'Alfred'
p4197
g945
tp4198
(dp4199
g946
I1
ss(g1760
g3566
tp4200
(dp4201
S'Street'
p4202
I1
ss(S'Clark,'
p4203
S'Charles'
p4204
tp4205
(dp4206
g34
I1
ss(g1182
g3308
tp4207
(dp4208
g34
I1
ss(S'Indonesian'
p4209
S'Malay'
p4210
tp4211
(dp4212
S'Association'
p4213
I1
ss(S'Rex'
p4214
S'Alfred'
p4215
tp4216
(dp4217
S'MORTIMER.'
p4218
I1
ss(g3758
g1292
tp4219
(dp4220
S'Date'
p4221
I1
ss(S'situation'
p4222
S'reports'
p4223
tp4224
(dp4225
g34
I2
ss(g16
g2430
tp4226
(dp4227
S'to'
p4228
I1
ss(g626
g629
tp4229
(dp4230
g2669
I1
ss(S'Geneva'
p4231
S'conference'
p4232
tp4233
(dp4234
g34
I1
ss(g2028
g2675
tp4235
(dp4236
g3229
I1
ss(g16
S'Dynamo'
p4237
tp4238
(dp4239
g34
I1
ss(g2554
g4107
tp4240
(dp4241
g34
I1
ss(S'Possible'
p4242
S'Developments'
p4243
tp4244
(dp4245
g4038
I1
ss(S'Policy'
p4246
g1523
tp4247
(dp4248
g1874
I1
ss(S'2a.'
p4249
S'The'
p4250
tp4251
(dp4252
S'nature'
p4253
I1
ss(S'trends'
p4254
S'in'
p4255
tp4256
(dp4257
g979
I1
ss(S'Australia.'
p4258
g2677
tp4259
(dp4260
g34
I1
ss(S'with'
p4261
g3364
tp4262
(dp4263
g34
I1
ss(S'and'
p4264
S'Indonesia'
p4265
tp4266
(dp4267
g1806
I2
ss(g260
S'Ian'
p4268
tp4269
(dp4270
g1354
I1
ss(g260
g3561
tp4271
(dp4272
g954
I1
ss(g2228
g1291
tp4273
(dp4274
g1292
I1
ss(S'intelligence'
p4275
S'1960'
p4276
tp4277
(dp4278
g34
I1
ss(S'Sabre'
p4279
g3442
tp4280
(dp4281
g3443
I1
ss(g2297
g2267
tp4282
(dp4283
g2268
I1
ss(S'Asia'
p4284
g3846
tp4285
(dp4286
S'global'
p4287
I1
ss(g16
S'Plan'
p4288
tp4289
(dp4290
S'for'
p4291
I1
ss(g260
S'North'
p4292
tp4293
(dp4294
S'Vietnam'
p4295
I1
ss(g2642
g2645
tp4296
(dp4297
g1782
I1
ss(g2884
g2887
tp4298
(dp4299
S'of'
p4300
I1
ss(g260
g785
tp4301
(dp4302
g786
I2
ss(S'Australia,'
p4303
S'August'
p4304
tp4305
(dp4306
S'1955'
p4307
I1
ss(g2097
S'security'
p4308
tp4309
(dp4310
g34
I1
ss(g95
S'index'
p4311
tp4312
(dp4313
g34
I1
ss(S'to'
p4314
g1037
tp4315
(dp4316
g16
I1
ss(g3409
g3412
tp4317
(dp4318
S'record'
p4319
I1
sS'record.'
p4320
I1
ss(g4120
g16
tp4321
(dp4322
S'Queensland'
p4323
I1
ss(g424
g16
tp4324
(dp4325
S'Pine'
p4326
I1
ss(g612
S'services'
p4327
tp4328
(dp4329
S'functions'
p4330
I1
ss(g3734
g3737
tp4331
(dp4332
g16
I1
ss(g16
S'Nedlands'
p4333
tp4334
(dp4335
S'Branch'
p4336
I1
ss(S'Communist'
p4337
S'Inter'
p4338
tp4339
(dp4340
S'Front'
p4341
I1
ss(S'from'
p4342
S'Canadian'
p4343
tp4344
(dp4345
g3402
I2
ss(S'Prospects'
p4346
S'for'
p4347
tp4348
(dp4349
S'Indonesia'
p4350
I1
ss(g260
S'Joint'
p4351
tp4352
(dp4353
S'Intelligence'
p4354
I2
ss(S'Intelligence'
p4355
g1190
tp4356
(dp4357
g1191
I1
ss(S'Canberra'
p4358
S'or'
p4359
tp4360
(dp4361
S'involving'
p4362
I1
ss(S'ANZUS'
p4363
g306
tp4364
(dp4365
g3470
I1
sg16
I1
ss(S'Personal'
p4366
S'correspondence'
p4367
tp4368
(dp4369
S'to'
p4370
I1
ss(S'CHRISTESEN'
p4371
g16
tp4372
(dp4373
S'Part'
p4374
I1
ss(S'Atomic'
p4375
S'Energy'
p4376
tp4377
(dp4378
g16
I1
ss(g3037
g3040
tp4379
(dp4380
g1381
I1
ss(S'situation'
p4381
g3461
tp4382
(dp4383
g3462
I1
ss(g1623
S'BE'
p4384
tp4385
(dp4386
S'Shell'
p4387
I1
ss(g1598
g1601
tp4388
(dp4389
S'SAC'
p4390
I1
ss(g2321
g2324
tp4391
(dp4392
g34
I1
ss(g1720
g1723
tp4393
(dp4394
g34
I1
ss(g16
g2794
tp4395
(dp4396
S'interests'
p4397
I1
sS'intelligence'
p4398
I2
sg1713
I1
sg655
I1
sS'Iron'
p4399
I1
sS'representation'
p4400
I1
sg2461
I1
ss(S'Australia.'
p4401
g4154
tp4402
(dp4403
g4155
I1
ss(g462
g465
tp4404
(dp4405
g16
I1
ss(S'Operation'
p4406
S'Adjutant'
p4407
tp4408
(dp4409
S'Volume'
p4410
I1
ss(g1105
S'in'
p4411
tp4412
(dp4413
S'Australia'
p4414
I1
ss(S'Notes'
p4415
g2748
tp4416
(dp4417
g3963
I1
ss(g3116
g802
tp4418
(dp4419
g803
I1
ss(S'of'
p4420
g990
tp4421
(dp4422
g991
I1
ss(g260
S'Van'
p4423
tp4424
(dp4425
g2599
I1
ss(S'South'
p4426
g4031
tp4427
(dp4428
g3917
I1
ss(S'April'
p4429
S'1975'
p4430
tp4431
(dp4432
g34
I1
ss(g969
g4399
tp4433
(dp4434
S'and'
p4435
I1
ss(g260
g3245
tp4436
(dp4437
g3246
I1
ss(g143
g16
tp4438
(dp4439
S'Tasmania'
p4440
I1
ss(S'the'
p4441
g3424
tp4442
(dp4443
g2580
I1
ss(g2730
g3210
tp4444
(dp4445
g34
I1
ss(g2041
S'1960'
p4446
tp4447
(dp4448
g34
I2
ss(g1629
g1632
tp4449
(dp4450
g4177
I1
ss(S'activities'
p4451
S'of'
p4452
tp4453
(dp4454
S'the'
p4455
I1
ss(g3686
S'and'
p4456
tp4457
(dp4458
S'Australia'
p4459
I1
ss(g16
g811
tp4460
(dp4461
g812
I1
ss(S'Canberra'
p4462
S'Propaganda'
p4463
tp4464
(dp4465
g34
I1
ss(S'Australia.'
p4466
S'Security'
p4467
tp4468
(dp4469
S'within'
p4470
I1
ss(g16
g605
tp4471
(dp4472
g16
I1
ss(S'on'
p4473
S'Middle'
p4474
tp4475
(dp4476
S'East'
p4477
I1
ss(g3166
S'1972'
p4478
tp4479
(dp4480
g34
I1
ss(g1494
g1497
tp4481
(dp4482
g685
I1
ss(g4228
g4231
tp4483
(dp4484
g4232
I1
ss(S'Australia.'
p4485
S'Carriage'
p4486
tp4487
(dp4488
S'News.'
p4489
I1
ss(S'United'
p4490
g1705
tp4491
(dp4492
g34
I2
sg1706
I1
sS'request'
p4493
I1
ss(g16
g2050
tp4494
(dp4495
S'Zealand'
p4496
I1
sg2051
I10
ss(g1244
S'Activities'
p4497
tp4498
(dp4499
g2360
I1
ss(g3254
g3533
tp4500
(dp4501
S'and'
p4502
I1
ss(g3313
g16
tp4503
(dp4504
g1232
I1
ss(g4497
g2360
tp4505
(dp4506
g2361
I1
ss(g1458
g1461
tp4507
(dp4508
g3508
I1
ss(g16
S'1971'
p4509
tp4510
(dp4511
g34
I1
ss(S'1986-87'
p4512
g16
tp4513
(dp4514
g2607
I1
ss(S'Edward'
p4515
g592
tp4516
(dp4517
g593
I1
ss(S'Public'
p4518
S'meetings'
p4519
tp4520
(dp4521
g34
I1
ss(S'deployment'
p4522
S'of'
p4523
tp4524
(dp4525
g4279
I1
ss(S'Dispute'
p4526
g16
tp4527
(dp4528
g1917
I1
ss(g260
g1419
tp4529
(dp4530
g1420
I1
ss(g567
g1462
tp4531
(dp4532
g1463
I1
ss(g16
g226
tp4533
(dp4534
g227
I3
ss(S'of'
p4535
S'Vietnam'
p4536
tp4537
(dp4538
g16
I1
ss(g418
g421
tp4539
(dp4540
g3660
I99
sg16
I1
sS'1921-58'
p4541
I1
sg3980
I1
ss(g593
g596
tp4542
(dp4543
g2553
I1
ss(S'Paas,'
p4544
S'May'
p4545
tp4546
(dp4547
g34
I1
ss(g2268
g2271
tp4548
(dp4549
S'Installations'
p4550
I1
ss(g2617
g3066
tp4551
(dp4552
g1390
I2
ss(S'of'
p4553
g1399
tp4554
(dp4555
g1400
I1
sS'Ministers,'
p4556
I1
sg16
I1
sS'on'
p4557
I1
ss(g16
g749
tp4558
(dp4559
g819
I1
ss(g1205
g1208
tp4560
(dp4561
g2963
I1
ss(S'on'
p4562
g2083
tp4563
(dp4564
S'Seabed'
p4565
I2
ss(g4410
g3963
tp4566
(dp4567
g34
I2
sg3454
I1
ss(S'Margaret'
p4568
S'McARTHUR'
p4569
tp4570
(dp4571
g34
I1
ss(S'NSW'
p4572
g1609
tp4573
(dp4574
S'Dock'
p4575
I1
ss(S'Doctrine'
p4576
S'and'
p4577
tp4578
(dp4579
S'Practice'
p4580
I1
ss(S'ASIO'
p4581
g1952
tp4582
(dp4583
g790
I1
ss(g2331
S'Branch'
p4584
tp4585
(dp4586
g34
I1
ss(g16
S'Organisations'
p4587
tp4588
(dp4589
S'abroad'
p4590
I1
ss(g1640
g16
tp4591
(dp4592
g1372
I1
ss(S'ADP'
p4593
g16
tp4594
(dp4595
g698
I1
ss(g2853
g3556
tp4596
(dp4597
g3557
I1
ss(S'Gibraltar'
p4598
S'as'
p4599
tp4600
(dp4601
g267
I6
ss(g3022
g3025
tp4602
(dp4603
g34
I1
ss(g16
g662
tp4604
(dp4605
g3356
I12
ss(g3857
S'war'
p4606
tp4607
(dp4608
S'in'
p4609
I1
ss(g684
g3352
tp4610
(dp4611
g34
I1
ss(g16
g1757
tp4612
(dp4613
S'branch'
p4614
I1
ss(S'classified'
p4615
S'information'
p4616
tp4617
(dp4618
S'to'
p4619
I1
ss(S'Trials'
p4620
g16
tp4621
(dp4622
g1620
I1
ss(S'Establishment'
p4623
g16
tp4624
(dp4625
g864
I1
ss(g16
S'Volumel'
p4626
tp4627
(dp4628
g364
I1
ss(g260
S'Chinese'
p4629
tp4630
(dp4631
S'Communist'
p4632
I1
ss(g260
S'BUDDLE,'
p4633
tp4634
(dp4635
S'Thomas'
p4636
I1
ss(g679
S'Marie'
p4637
tp4638
(dp4639
S'Volume'
p4640
I1
ss(S'in'
p4641
S'Malaysia'
p4642
tp4643
(dp4644
g34
I1
ss(g16
S'Third'
p4645
tp4646
(dp4647
S'Report'
p4648
I1
ss(S'Gordon,'
p4649
S'THOMAS,'
p4650
tp4651
(dp4652
S'John'
p4653
I1
ss(g3539
S'security'
p4654
tp4655
(dp4656
g4146
I1
ss(g2855
g2858
tp4657
(dp4658
S'East'
p4659
I1
ss(g2684
g2160
tp4660
(dp4661
g2161
I1
sg3237
I1
sg2648
I1
ss(S'Raymond'
p4662
S'COX'
p4663
tp4664
(dp4665
g34
I1
ss(g876
g16
tp4666
(dp4667
g3026
I1
ss(S'Antarctica'
p4668
g16
tp4669
(dp4670
S'Australian'
p4671
I1
sg2135
I1
ss(g4255
g979
tp4672
(dp4673
g980
I1
ss(g16
S'Planning'
p4674
tp4675
(dp4676
g1972
I1
ss(S'and'
p4677
S'Equipment'
p4678
tp4679
(dp4680
g642
I1
ss(S'the'
p4681
S'Far'
p4682
tp4683
(dp4684
S'East'
p4685
I1
ss(g1673
g1676
tp4686
(dp4687
g86
I1
ss(g16
S'Joint'
p4688
tp4689
(dp4690
S'Intelligence'
p4691
I6
ss(g3951
g67
tp4692
(dp4693
g68
I5
sg4088
I1
ss(S'Middle'
p4694
S'East'
p4695
tp4696
(dp4697
g3647
I2
sg34
I5
sg16
I4
ss(g16
g2853
tp4698
(dp4699
g3556
I1
sg16
I2
sg938
I1
sg334
I1
ss(g2998
g3001
tp4700
(dp4701
g2623
I3
ss(g4304
g4307
tp4702
(dp4703
g34
I1
ss(g1024
g1027
tp4704
(dp4705
g16
I1
sS'Part'
p4706
I1
sg4371
I1
ss(S'Plan'
p4707
g3794
tp4708
(dp4709
g3795
I1
ss(g847
g850
tp4710
(dp4711
g34
I1
ss(S'consular'
p4712
S'premises'
p4713
tp4714
(dp4715
g16
I1
ss(S'Intelligence'
p4716
S'in'
p4717
tp4718
(dp4719
S'the'
p4720
I1
ss(g4333
g4336
tp4721
(dp4722
g34
I1
ss(S'information'
p4723
g2276
tp4724
(dp4725
g16
I2
ss(g4486
g4489
tp4726
(dp4727
g34
I1
ss(g1759
S'Committee'
p4728
tp4729
(dp4730
g34
I1
ss(S'United'
p4731
g2850
tp4732
(dp4733
g34
I2
sS'of'
p4734
I3
sg4615
I1
sg16
I1
sg1829
I1
sg1292
I1
ss(g16
g745
tp4735
(dp4736
g4138
I1
ss(g16
S'Defence'
p4737
tp4738
(dp4739
g16
I2
ss(g3097
g3100
tp4740
(dp4741
g39
I1
ss(S'Intelligence'
p4742
g207
tp4743
(dp4744
g2211
I1
sg208
I1
ss(g16
S'Broome'
p4745
tp4746
(dp4747
S'Western'
p4748
I1
ss(S'Arthur,'
p4749
g2477
tp4750
(dp4751
g2478
I2
ss(S'including'
p4752
g4426
tp4753
(dp4754
g4031
I1
ss(g789
S'RUSSELL'
p4755
tp4756
(dp4757
g34
I2
ss(g92
g95
tp4758
(dp4759
g4311
I1
ss(g260
g2057
tp4760
(dp4761
g2058
I1
ss(g16
S'funds'
p4762
tp4763
(dp4764
S'authorisation'
p4765
I1
ss(g3029
S'diplomatic'
p4766
tp4767
(dp4768
S'and'
p4769
I1
sS'relations'
p4770
I1
ss(g337
g3362
tp4771
(dp4772
g34
I1
ss(g4671
g4397
tp4773
(dp4774
g16
I1
ss(S'to'
p4775
S'assist'
p4776
tp4777
(dp4778
S'the'
p4779
I1
ss(g2726
g2554
tp4780
(dp4781
g34
I1
ss(g2782
g894
tp4782
(dp4783
g895
I1
ss(g3533
g4502
tp4784
(dp4785
S'investigators'
p4786
I1
ss(g260
g212
tp4787
(dp4788
g213
I1
ss(g4326
S'Creek'
p4789
tp4790
(dp4791
g16
I1
ss(g16
g490
tp4792
(dp4793
S'meeting'
p4794
I1
ss(S'Asia'
p4795
S'up'
p4796
tp4797
(dp4798
S'to'
p4799
I2
ss(g1176
g1179
tp4800
(dp4801
S'in'
p4802
I1
ss(g2528
g2531
tp4803
(dp4804
g3656
I1
ss(g3261
S'and'
p4805
tp4806
(dp4807
g1296
I1
ss(g16
S'Yugoslav'
p4808
tp4809
(dp4810
g34
I1
ss(g260
S'Japan'
p4811
tp4812
(dp4813
g16
I4
ss(g2645
g1782
tp4814
(dp4815
g1783
I1
ss(g2439
g2442
tp4816
(dp4817
S'gain'
p4818
I1
ss(g3705
S'Cyril'
p4819
tp4820
(dp4821
g34
I1
ss(g1844
g1847
tp4822
(dp4823
g34
I1
ss(g3416
S'Island'
p4824
tp4825
(dp4826
g1749
I1
ss(g1692
g16
tp4827
(dp4828
g1816
I1
ss(S'4947'
p4829
g16
tp4830
(dp4831
g886
I1
ss(S'Jan'
p4832
g563
tp4833
(dp4834
g564
I1
ss(g260
S'FBI'
p4835
tp4836
(dp4837
S'inquiry'
p4838
I2
ss(g2719
g2722
tp4839
(dp4840
g34
I1
ss(S'Laotian'
p4841
S'Government'
p4842
tp4843
(dp4844
S'to'
p4845
I1
ss(S'South'
p4846
S'West'
p4847
tp4848
(dp4849
S'Pacific'
p4850
I2
ss(S'London,'
p4851
S'1966'
p4852
tp4853
(dp4854
g34
I1
ss(S'Wales'
p4855
g16
tp4856
(dp4857
g3121
I1
sg1633
I1
sS'illegal'
p4858
I1
sg811
I1
sS'Moss'
p4859
I1
sg1057
I1
ss(g1654
g1657
tp4860
(dp4861
g2993
I1
ss(S'Melbourne'
p4862
S'Branch'
p4863
tp4864
(dp4865
g34
I1
ss(S'Wales,'
p4866
g1732
tp4867
(dp4868
S'Branch'
p4869
I1
ss(g16
g2153
tp4870
(dp4871
g2154
I2
ss(g4678
g642
tp4872
(dp4873
g643
I1
ss(S'Organisation,'
p4874
g2796
tp4875
(dp4876
g2797
I1
ss(g3837
g3840
tp4877
(dp4878
g34
I1
ss(g342
g3679
tp4879
(dp4880
g3680
I2
ss(g1350
g1353
tp4881
(dp4882
S'furtherance'
p4883
I1
ss(g245
S'United'
p4884
tp4885
(dp4886
S'States'
p4887
I1
ss(g1952
g790
tp4888
(dp4889
g791
I1
ss(g227
g230
tp4890
(dp4891
g1311
I3
ss(S'Carlisle'
p4892
S'Branch'
p4893
tp4894
(dp4895
g34
I1
ss(S'ASIO'
p4896
g1953
tp4897
(dp4898
g1241
I1
sS'Review'
p4899
I1
sg477
I1
ss(g2639
g2522
tp4900
(dp4901
g2523
I1
ss(g4779
S'Royal'
p4902
tp4903
(dp4904
g4841
I1
ss(g16
g2174
tp4905
(dp4906
g4041
I1
ss(S'East.'
p4907
g762
tp4908
(dp4909
g763
I1
ss(S'Bankstown'
p4910
S'Branch'
p4911
tp4912
(dp4913
g34
I1
ss(S'Sarawak'
p4914
g16
tp4915
(dp4916
S'Internal'
p4917
I4
ss(g1936
g1939
tp4918
(dp4919
g16
I1
ss(g16
S'miscellaneous'
p4920
tp4921
(dp4922
S'papers'
p4923
I1
ss(g2478
g2481
tp4924
(dp4925
g34
I2
ss(g2954
g364
tp4926
(dp4927
g34
I1
ss(g2128
g3701
tp4928
(dp4929
g34
I1
ss(S'of'
p4930
g16
tp4931
(dp4932
g2550
I1
ss(S'Paas,'
p4933
S'Frank'
p4934
tp4935
(dp4936
g34
I1
ss(g514
g519
tp4937
(dp4938
g1658
I2
ss(S'NSW,'
p4939
g1319
tp4940
(dp4941
g1320
I1
ss(S'Deception'
p4942
S'Planning'
p4943
tp4944
(dp4945
g34
I1
ss(g490
g4794
tp4946
(dp4947
S'Bangkok'
p4948
I1
ss(S'regional'
p4949
S'defence'
p4950
tp4951
(dp4952
g34
I1
ss(S'ASIO'
p4953
g202
tp4954
(dp4955
g203
I1
ss(g235
g2453
tp4956
(dp4957
g34
I2
ss(g3107
g3110
tp4958
(dp4959
S'intelligence'
p4960
I1
ss(g1096
S'1954'
p4961
tp4962
(dp4963
g2144
I1
ss(g2263
g2266
tp4964
(dp4965
g34
I2
ss(S'Geraldton'
p4966
S'branch.'
p4967
tp4968
(dp4969
g34
I1
ss(S'Proposed'
p4970
S'resumption'
p4971
tp4972
(dp4973
S'of'
p4974
I1
ss(S'Australia'
p4975
g329
tp4976
(dp4977
g330
I1
ss(g1382
g1385
tp4978
(dp4979
S'1973'
p4980
I1
ss(S'JIC'
p4981
S'and'
p4982
tp4983
(dp4984
S'JIS'
p4985
I1
ss(g272
g275
tp4986
(dp4987
g767
I1
ss(S'Intelligence'
p4988
g3007
tp4989
(dp4990
g3008
I1
ss(g1151
S'Zealand'
p4991
tp4992
(dp4993
g34
I3
ss(S'with'
p4994
g3363
tp4995
(dp4996
g34
I1
ss(g260
S'USSR'
p4997
tp4998
(dp4999
g4337
I1
ss(g4523
g4279
tp5000
(dp5001
g3442
I1
ss(g1676
g86
tp5002
(dp5003
g87
I1
sg2352
I1
ss(g260
S'Action'
p5004
tp5005
(dp5006
g3451
I1
ss(g3588
g807
tp5007
(dp5008
g808
I1
ss(g2767
g2770
tp5009
(dp5010
g34
I1
ss(g1584
g1315
tp5011
(dp5012
g1316
I1
ss(g581
S'Conference'
p5013
tp5014
(dp5015
g34
I1
ss(S'Asia'
p5016
g3845
tp5017
(dp5018
S'Defence'
p5019
I1
ss(g2931
g3516
tp5020
(dp5021
S'and'
p5022
I1
ss(S'the'
p5023
S'Council,'
p5024
tp5025
(dp5026
g1015
I2
ss(g1287
g1290
tp5027
(dp5028
g3771
I1
ss(S'Vladimir'
p5029
S'and'
p5030
tp5031
(dp5032
S'Evdokia'
p5033
I1
ss(S'Conversations'
p5034
S'in'
p5035
tp5036
(dp5037
g4358
I1
ss(g260
g4914
tp5038
(dp5039
g16
I4
ss(S'MATIONG'
p5040
g3850
tp5041
(dp5042
g3851
I2
ss(g1757
g4614
tp5043
(dp5044
g34
I1
ss(S'potential'
p5045
S'in'
p5046
tp5047
(dp5048
S'the'
p5049
I1
ss(g16
S'clandestine'
p5050
tp5051
(dp5052
S'operations'
p5053
I1
ss(g3403
g3406
tp5054
(dp5055
S'booklet'
p5056
I2
ss(S'weapons'
p5057
g16
tp5058
(dp5059
g4246
I1
ss(g260
S'FALCONER,'
p5060
tp5061
(dp5062
S'James'
p5063
I1
ss(g2376
g16
tp5064
(dp5065
g2050
I1
ss(g4650
g4653
tp5066
(dp5067
S'Henry'
p5068
I1
ss(g4323
g363
tp5069
(dp5070
g364
I1
ss(S'the'
p5071
g3057
tp5072
(dp5073
S'committee'
p5074
I1
ss(S'South'
p5075
g3602
tp5076
(dp5077
g16
I1
ss(g4550
g3216
tp5078
(dp5079
g3217
I1
ss(g260
S'Department'
p5080
tp5081
(dp5082
S'of'
p5083
I3
ss(g153
g3696
tp5084
(dp5085
S'currency'
p5086
I1
ss(g3832
S'MACDONALD'
p5087
tp5088
(dp5089
g34
I1
ss(g3991
g3994
tp5090
(dp5091
g1048
I1
ss(g605
g16
tp5092
(dp5093
g1359
I1
sg255
I1
ss(g1875
g1878
tp5094
(dp5095
S'powers'
p5096
I1
ss(S'and'
p5097
g1079
tp5098
(dp5099
g1080
I1
ss(g2749
S'5A'
p5100
tp5101
(dp5102
g34
I1
ss(g3661
g16
tp5103
(dp5104
g226
I3
sg2767
I1
sg3837
I1
sg2719
I1
sg2974
I1
sS'Saint'
p5105
I1
sS'New'
p5106
I9
sS'Progress'
p5107
I1
sg3805
I1
sS'use'
p5108
I1
sS'Exchange'
p5109
I1
sS'illegal'
p5110
I1
sS'Unemployed'
p5111
I1
sg3395
I1
sg1754
I3
sg2215
I2
sg1778
I8
sg868
I1
sg959
I2
sg905
I1
sg1368
I1
sg1790
I1
sg2727
I1
sg4190
I1
sS'ICI'
p5112
I1
sg2328
I6
sg2379
I3
sS'Indonesia'
p5113
I2
sS'Birkenhead'
p5114
I1
sg986
I1
sg505
I3
sg236
I1
sg4237
I1
sg4142
I1
sg2672
I10
sS'History'
p5115
I1
sS'Papua'
p5116
I1
sg1333
I1
sg2846
I1
sS'Chinese'
p5117
I1
sg4462
I1
sS'Belmont'
p5118
I1
sg4509
I1
sg4333
I1
sg1944
I1
sg286
I1
sg2310
I1
ss(S'November'
p5119
S'1956'
p5120
tp5121
(dp5122
g34
I2
ss(g5063
g525
tp5123
(dp5124
g16
I1
ss(g4557
S'visit'
p5125
tp5126
(dp5127
S'abroad'
p5128
I1
ss(g573
g576
tp5129
(dp5130
S'LOCKE'
p5131
I1
ss(S'of'
p5132
g4355
tp5133
(dp5134
g1190
I1
ss(g293
g16
tp5135
(dp5136
S'whereabouts'
p5137
I1
ss(S'prepared'
p5138
S'by'
p5139
tp5140
(dp5141
S'Department'
p5142
I1
ss(g1657
g2993
tp5143
(dp5144
g16
I1
ss(g2894
g16
tp5145
(dp5146
S'ASIO'
p5147
I1
ss(g260
g1963
tp5148
(dp5149
g1175
I1
ss(g5107
g2375
tp5150
(dp5151
g2376
I1
ss(g3894
S'of'
p5152
tp5153
(dp5154
S'Central'
p5155
I1
ss(g5128
g2431
tp5156
(dp5157
g794
I1
ss(g2511
g16
tp5158
(dp5159
g4920
I1
ss(g1878
g5096
tp5160
(dp5161
g16
I1
ss(S'Australia.'
p5162
S'Electric'
p5163
tp5164
(dp5165
S'Press'
p5166
I1
ss(S'Security'
p5167
S'Intelligence'
p5168
tp5169
(dp5170
g2257
I1
ss(g2396
g2399
tp5171
(dp5172
S'South'
p5173
I1
ss(S'Julien'
p5174
g3903
tp5175
(dp5176
g3904
I1
ss(g16
g5110
tp5177
(dp5178
S'apparatus'
p5179
I4
ss(g260
g2066
tp5180
(dp5181
g582
I1
ss(g260
S'COLEMAN,'
p5182
tp5183
(dp5184
g2738
I1
ss(S'Party'
p5185
g3980
tp5186
(dp5187
g3981
I1
ss(S'to'
p5188
S'Security:'
p5189
tp5190
(dp5191
S'Translation'
p5192
I1
ss(g2161
g2164
tp5193
(dp5194
g34
I1
ss(g3482
g3485
tp5195
(dp5196
g3021
I1
sg16
I3
sg630
I1
sS'Treaty'
p5197
I1
ss(S'Cabinet'
p5198
g1902
tp5199
(dp5200
g4829
I1
sS'5353'
p5201
I1
ss(S'the'
p5202
g3899
tp5203
(dp5204
g3900
I1
ss(g3846
g4287
tp5205
(dp5206
S'war'
p5207
I1
ss(g260
S'Annie'
p5208
tp5209
(dp5210
g4568
I1
ss(g408
g3721
tp5211
(dp5212
g3722
I1
ss(g1870
g1873
tp5213
(dp5214
g34
I1
ss(g2062
g2065
tp5215
(dp5216
g34
I1
ss(g371
S'and'
p5217
tp5218
(dp5219
S'control.'
p5220
I1
ss(g260
g4242
tp5221
(dp5222
g4243
I1
ss(S'Adelaide'
p5223
S'South'
p5224
tp5225
(dp5226
S'Australia'
p5227
I1
ss(S'JIC'
p5228
S'papers'
p5229
tp5230
(dp5231
g16
I1
ss(S'Information'
p5232
S'about'
p5233
tp5234
(dp5235
S'Australia'
p5236
I1
ss(g1648
g16
tp5237
(dp5238
g2939
I1
ss(g260
g3708
tp5239
(dp5240
g3709
I1
ss(g4632
g1161
tp5241
(dp5242
g1162
I1
ss(S'Mrs'
p5243
g1106
tp5244
(dp5245
g16
I1
ss(g3811
S'KAISER'
p5246
tp5247
(dp5248
g34
I1
ss(g3388
g164
tp5249
(dp5250
g165
I1
ss(g3709
g3712
tp5251
(dp5252
S'Vol'
p5253
I1
ss(g5201
g16
tp5254
(dp5255
g3145
I1
ss(g808
g16
tp5256
(dp5257
g2750
I1
ss(S'Ministerial'
p5258
g2103
tp5259
(dp5260
g2104
I1
ss(g260
S'India'
p5261
tp5262
(dp5263
g16
I1
ss(g600
g3106
tp5264
(dp5265
g16
I1
ss(g260
g2950
tp5266
(dp5267
g2951
I1
ss(g3974
g3977
tp5268
(dp5269
S'of'
p5270
I1
ss(S'London'
p5271
g16
tp5272
(dp5273
S'weekly'
p5274
I2
ss(g260
S'Lunatics'
p5275
tp5276
(dp5277
g34
I1
ss(g652
g16
tp5278
(dp5279
S'General'
p5280
I1
ss(S'Agenda'
p5281
g3115
tp5282
(dp5283
g4249
I1
sg3116
I1
sg4009
I1
ss(S'12,'
p5284
S'administration'
p5285
tp5286
(dp5287
g16
I1
ss(g16
g2841
tp5288
(dp5289
g2842
I1
ss(g1411
g356
tp5290
(dp5291
g357
I1
ss(g3566
g4202
tp5292
(dp5293
S'Branch'
p5294
I1
ss(S'Intelligence'
p5295
S'Ad'
p5296
tp5297
(dp5298
g1735
I1
ss(g4370
g5029
tp5299
(dp5300
g5030
I1
ss(S'Nauru.'
p5301
S'Volume'
p5302
tp5303
(dp5304
g39
I1
ss(g4137
S'of'
p5305
tp5306
(dp5307
g2703
I3
ss(g16
g2793
tp5308
(dp5309
g807
I1
sS'relations'
p5310
I1
ss(g4674
g1972
tp5311
(dp5312
g1245
I1
ss(g2829
g2699
tp5313
(dp5314
g2700
I1
ss(g1696
g1699
tp5315
(dp5316
g394
I1
ss(g3149
g4013
tp5317
(dp5318
g4014
I1
ss(g4948
S'1960'
p5319
tp5320
(dp5321
g34
I1
ss(S'Delegation'
p5322
S'to'
p5323
tp5324
(dp5325
g5202
I2
ss(g1057
g1060
tp5326
(dp5327
S'Branch'
p5328
I1
ss(g676
g679
tp5329
(dp5330
g4637
I1
ss(g2176
g2179
tp5331
(dp5332
S'to'
p5333
I1
ss(g260
g577
tp5334
(dp5335
g578
I1
ss(g4859
g3790
tp5336
(dp5337
g3791
I1
ss(g260
g4375
tp5338
(dp5339
g4376
I1
ss(g2145
g2148
tp5340
(dp5341
g4123
I1
ss(g16
S'Mataranka'
p5342
tp5343
(dp5344
g3111
I1
ss(S'presented'
p5345
S'by'
p5346
tp5347
(dp5348
S'the'
p5349
I3
ss(g2887
g4300
tp5350
(dp5351
S'Interior:'
p5352
I1
ss(g1427
S'of'
p5353
tp5354
(dp5355
g3628
I1
ss(S'UK'
p5356
S'committee'
p5357
tp5358
(dp5359
S'report'
p5360
I1
ss(g1903
g3137
tp5361
(dp5362
g16
I1
ss(g5117
S'Representation'
p5363
tp5364
(dp5365
S'in'
p5366
I1
ss(g4091
g16
tp5367
(dp5368
S'July'
p5369
I1
ss(g3580
g3583
tp5370
(dp5371
S'Australia'
p5372
I1
ss(g16
g2792
tp5373
(dp5374
S'in'
p5375
I1
ss(S'in'
p5376
S'Tokyo'
p5377
tp5378
(dp5379
g34
I1
ss(S'Exchange'
p5380
g5132
tp5381
(dp5382
S'intelligence'
p5383
I3
sg4355
I1
sg3321
I1
sg1399
I1
sg3138
I1
ss(S'from'
p5384
g429
tp5385
(dp5386
g430
I1
sg34
I1
ss(S'Organization'
p5387
g3178
tp5388
(dp5389
g4775
I1
ss(g5115
g4930
tp5390
(dp5391
g16
I1
ss(g3945
g3540
tp5392
(dp5393
g3541
I2
ss(g16
g2097
tp5394
(dp5395
g4308
I1
ss(g16
g3587
tp5396
(dp5397
S'Island'
p5398
I1
ss(g260
S'Correspondence'
p5399
tp5400
(dp5401
g16
I1
ss(g4654
g4146
tp5402
(dp5403
g4147
I1
ss(S'the'
p5404
g3063
tp5405
(dp5406
g3579
I1
ss(S'Agencies'
p5407
S'in'
p5408
tp5409
(dp5410
g4512
I1
ss(g5105
S'Vincents'
p5411
tp5412
(dp5413
g2069
I1
ss(g921
g1981
tp5414
(dp5415
g1982
I2
ss(g3375
S'defence'
p5416
tp5417
(dp5418
g2603
I1
ss(g3842
g1000
tp5419
(dp5420
g409
I3
ss(g1292
g4137
tp5421
(dp5422
g5305
I3
ss(g2692
g2695
tp5423
(dp5424
g2902
I1
ss(g2939
g2942
tp5425
(dp5426
g3032
I1
ss(g638
g641
tp5427
(dp5428
S'of'
p5429
I1
ss(g5353
g3628
tp5430
(dp5431
g3629
I1
ss(g3744
g3748
tp5432
(dp5433
g34
I1
sS'Social'
p5434
I1
ss(g16
S'Exercises'
p5435
tp5436
(dp5437
g16
I2
ss(S'Kathleen'
p5438
S'Mary'
p5439
tp5440
(dp5441
g2486
I1
ss(g2236
g2756
tp5442
(dp5443
g34
I1
ss(g1027
g4371
tp5444
(dp5445
g16
I1
ss(S'the'
p5446
g3054
tp5447
(dp5448
S'Committee'
p5449
I1
ss(g5125
g5128
tp5450
(dp5451
g2431
I1
ss(S'Australian'
p5452
g771
tp5453
(dp5454
g772
I2
sS'to'
p5455
I1
ss(S'Anglo-Argentine'
p5456
S'dispute'
p5457
tp5458
(dp5459
S'Falkland'
p5460
I1
ss(g16
g1695
tp5461
(dp5462
g1696
I1
ss(g260
S'Antarctica'
p5463
tp5464
(dp5465
g34
I1
sg16
I2
ss(g260
g4134
tp5466
(dp5467
g1292
I1
ss(g16
g149
tp5468
(dp5469
g150
I1
ss(g2518
g2521
tp5470
(dp5471
S'to'
p5472
I1
ss(S'Report:'
p5473
g899
tp5474
(dp5475
g900
I1
ss(g4616
g4619
tp5476
(dp5477
S'Australia'
p5478
I1
ss(g3884
g3092
tp5479
(dp5480
g34
I1
ss(S'Israel'
p5481
g16
tp5482
(dp5483
g3643
I1
ss(g4745
g4748
tp5484
(dp5485
S'Australia'
p5486
I1
ss(g3317
g16
tp5487
(dp5488
g127
I1
ss(g16
g4859
tp5489
(dp5490
g3790
I1
ss(g5147
g2511
tp5491
(dp5492
g16
I1
ss(g2476
g16
tp5493
(dp5494
g2224
I1
ss(g260
S'Kevin'
p5495
tp5496
(dp5497
g4662
I1
ss(S'West'
p5498
S'Germany'
p5499
tp5500
(dp5501
g16
I1
ss(g16
g509
tp5502
(dp5503
g3589
I1
ss(g16
g5117
tp5504
(dp5505
g5363
I1
sS'Communist'
p5506
I1
ss(g4637
g4640
tp5507
(dp5508
g3963
I1
ss(g3659
g2262
tp5509
(dp5510
g2263
I1
ss(g260
S'CLARKE,'
p5511
tp5512
(dp5513
S'Duncan'
p5514
I1
ss(S'Exchange'
p5515
S'Branch'
p5516
tp5517
(dp5518
g34
I1
ss(g5253
g39
tp5519
(dp5520
g34
I1
ss(S'Cryptographic'
p5521
g2074
tp5522
(dp5523
g2075
I1
ss(g893
g5057
tp5524
(dp5525
g16
I1
ss(g4088
g4091
tp5526
(dp5527
g16
I1
ss(S'activities'
p5528
g16
tp5529
(dp5530
S'Queensland'
p5531
I1
ss(g3341
g597
tp5532
(dp5533
g16
I1
ss(g3017
g5345
tp5534
(dp5535
g5346
I3
ss(S'USSR.'
p5536
g4970
tp5537
(dp5538
g4971
I1
ss(g260
g3018
tp5539
(dp5540
g81
I1
ss(g1160
S'Department'
p5541
tp5542
(dp5543
S'of'
p5544
I1
ss(g4805
g1296
tp5545
(dp5546
g1297
I1
ss(g2051
g2054
tp5547
(dp5548
g34
I2
sg16
I6
ss(g549
g552
tp5549
(dp5550
g1395
I1
ss(g16
S'Netherlands'
p5551
tp5552
(dp5553
g34
I1
ss(S'19'
p5554
g4832
tp5555
(dp5556
g563
I1
ss(g1157
g1160
tp5557
(dp5558
g5541
I1
ss(g1528
S'Branch'
p5559
tp5560
(dp5561
g34
I1
ss(g2793
g5310
tp5562
(dp5563
S'with'
p5564
I1
ss(g4899
g1428
tp5565
(dp5566
g1429
I1
sg4139
I1
sg272
I1
sS'Middle'
p5567
I1
ss(g5182
g2738
tp5568
(dp5569
g2723
I1
ss(S'June,'
p5570
S'1960.'
p5571
tp5572
(dp5573
g34
I1
ss(g260
g4623
tp5574
(dp5575
g16
I1
ss(g260
S'Protective'
p5576
tp5577
(dp5578
g1691
I1
sg2709
I1
ss(g4330
S'1975'
p5579
tp5580
(dp5581
g34
I1
ss(g1560
S'branch'
p5582
tp5583
(dp5584
g34
I1
ss(g1953
g477
tp5585
(dp5586
g478
I1
ss(g1220
g16
tp5587
(dp5588
S'Defence'
p5589
I1
ss(g3712
g5253
tp5590
(dp5591
g39
I1
ss(g1122
S'5B/59'
p5592
tp5593
(dp5594
g16
I1
ss(g260
S'Operation'
p5595
tp5596
(dp5597
S'of'
p5598
I1
sg4407
I1
ss(g155
g158
tp5599
(dp5600
g34
I1
ss(g2225
g2228
tp5601
(dp5602
g1291
I1
ss(g3006
g926
tp5603
(dp5604
S'police'
p5605
I1
ss(g16
g491
tp5606
(dp5607
S'Reports'
p5608
I2
ss(g260
g2915
tp5609
(dp5610
g2916
I1
ss(g3511
g2627
tp5611
(dp5612
g2628
I1
ss(S'Part'
p5613
g39
tp5614
(dp5615
g34
I2
ss(g5060
g5063
tp5616
(dp5617
g525
I1
ss(g16
g310
tp5618
(dp5619
g76
I1
ss(g4717
g4720
tp5620
(dp5621
S'United'
p5622
I1
sg4961
I1
sg4682
I1
sg2351
I1
sS'Treaty'
p5623
I1
sg4694
I2
sS'Sino-Soviet'
p5624
I1
ss(g1549
g380
tp5625
(dp5626
g381
I1
ss(S'planning'
p5627
S'in'
p5628
tp5629
(dp5630
S'relation'
p5631
I1
ss(g260
S'Czechoslovak'
p5632
tp5633
(dp5634
g2883
I1
ss(S'ANZAM'
p5635
g2359
tp5636
(dp5637
S'Meeting,'
p5638
I1
ss(S'and'
p5639
S'extent'
p5640
tp5641
(dp5642
S'of'
p5643
I2
ss(g1632
g4177
tp5644
(dp5645
g16
I1
sg4178
I1
ss(g3587
g5398
tp5646
(dp5647
g34
I1
ss(g2560
g2563
tp5648
(dp5649
g4526
I1
ss(g2075
g2078
tp5650
(dp5651
g34
I1
ss(g260
S'Jewish'
p5652
tp5653
(dp5654
S'Unity'
p5655
I1
ss(g4074
g1349
tp5656
(dp5657
g1350
I1
ss(g691
g694
tp5658
(dp5659
S'South'
p5660
I1
ss(S'Council'
p5661
g3190
tp5662
(dp5663
g1667
I1
ss(S'June'
p5664
S'1974'
p5665
tp5666
(dp5667
g34
I1
ss(g160
g163
tp5668
(dp5669
g34
I2
sg16
I1
ss(g3481
S'Briefs'
p5670
tp5671
(dp5672
g5138
I1
ss(g5342
g3111
tp5673
(dp5674
g3112
I1
ss(g2806
g2809
tp5675
(dp5676
g34
I1
ss(S'Law'
p5677
S'of'
p5678
tp5679
(dp5680
S'the'
p5681
I1
ss(g16
g189
tp5682
(dp5683
g190
I1
ss(g3593
g3596
tp5684
(dp5685
g3376
I1
ss(g1802
g1805
tp5686
(dp5687
S'Soviet'
p5688
I1
ss(S'Relief'
p5689
g2277
tp5690
(dp5691
g2278
I1
ss(g260
S'Republic'
p5692
tp5693
(dp5694
g2336
I1
ss(S'Wireless'
p5695
S'Telegraph'
p5696
tp5697
(dp5698
S'Codes'
p5699
I1
ss(g4645
g4648
tp5700
(dp5701
g16
I1
ss(g1441
g1444
tp5702
(dp5703
S'in'
p5704
I1
ss(g4026
g16
tp5705
(dp5706
g4429
I1
ss(S'the'
p5707
g3056
tp5708
(dp5709
g16
I1
ss(g5118
S'Park'
p5710
tp5711
(dp5712
S'Branch'
p5713
I1
ss(g16
S'Thailand'
p5714
tp5715
(dp5716
g16
I1
ss(g2355
g2358
tp5717
(dp5718
g3338
I1
ss(g510
g3819
tp5719
(dp5720
g34
I1
ss(g763
g766
tp5721
(dp5722
g34
I1
ss(g4374
g3963
tp5723
(dp5724
g34
I1
ss(g3321
g25
tp5725
(dp5726
g26
I1
ss(g3732
S'1962'
p5727
tp5728
(dp5729
S'and'
p5730
I1
ss(S'NSW'
p5731
g1612
tp5732
(dp5733
g4910
I1
ss(g16
g3931
tp5734
(dp5735
g2434
I2
ss(g748
g2569
tp5736
(dp5737
g521
I1
ss(S'of'
p5738
g3309
tp5739
(dp5740
g3310
I1
ss(g1365
g16
tp5741
(dp5742
g2908
I1
ss(g16
g5369
tp5743
(dp5744
S'1937.'
p5745
I1
ss(S'Australian'
p5746
g2888
tp5747
(dp5748
g2889
I1
ss(g1334
g16
tp5749
(dp5750
g668
I1
ss(g3177
g1117
tp5751
(dp5752
g1118
I2
ss(S'Office'
p5753
g1122
tp5754
(dp5755
g5592
I1
ss(g16
g1493
tp5756
(dp5757
g2046
I1
ss(g3972
g16
tp5758
(dp5759
g622
I1
ss(g260
g4059
tp5760
(dp5761
g4060
I1
ss(S'Chief'
p5762
S'of'
p5763
tp5764
(dp5765
S'General'
p5766
I1
ss(g260
g1687
tp5767
(dp5768
g1688
I2
ss(g3702
g3705
tp5769
(dp5770
g4819
I1
ss(g16
g524
tp5771
(dp5772
S'report'
p5773
I1
ss(g5640
g5643
tp5774
(dp5775
g482
I2
ss(g3964
g318
tp5776
(dp5777
S'1960'
p5778
I1
sg319
I1
ss(g2947
g1986
tp5779
(dp5780
g1987
I1
ss(S'Australian'
p5781
S'representation'
p5782
tp5783
(dp5784
g34
I2
ss(g3063
g3579
tp5785
(dp5786
g3580
I1
ss(g4185
g1292
tp5787
(dp5788
g2473
I1
ss(S'Probable'
p5789
g1579
tp5790
(dp5791
S'and'
p5792
I2
ss(g208
g211
tp5793
(dp5794
g3728
I1
ss(g747
S'aspects'
p5795
tp5796
(dp5797
g34
I1
ss(S'Committee'
p5798
S'Reports'
p5799
tp5800
(dp5801
g34
I1
ss(g5112
S'Branch'
p5802
tp5803
(dp5804
g34
I1
ss(g260
S''
p5805
tp5806
(dp5807
g34
I1
ss(g5109
g2171
tp5808
(dp5809
g16
I1
ss(g1765
S'Commissioner'
p5810
tp5811
(dp5812
g5376
I1
ss(S'the'
p5813
S'Peaceful'
p5814
tp5815
(dp5816
S'Uses'
p5817
I1
ss(g1510
g1513
tp5818
(dp5819
g34
I1
ss(g16
S'Army'
p5820
tp5821
(dp5822
g34
I1
ss(g1613
g3331
tp5823
(dp5824
g34
I1
ss(S'current'
p5825
g833
tp5826
(dp5827
g4276
I1
sg16
I1
sg4473
I1
ss(g16
S'Aspects'
p5828
tp5829
(dp5830
g34
I1
ss(g1732
g4869
tp5831
(dp5832
g34
I1
ss(g5511
g5514
tp5833
(dp5834
g96
I1
ss(g417
g761
tp5835
(dp5836
S'the'
p5837
I1
ss(g1394
g1923
tp5838
(dp5839
g1097
I1
ss(S'diplomatic'
p5840
g4770
tp5841
(dp5842
g34
I1
ss(g1923
g1097
tp5843
(dp5844
g1098
I1
ss(g260
g3167
tp5845
(dp5846
g3168
I1
ss(g4577
g4580
tp5847
(dp5848
g34
I1
ss(g1118
g1121
tp5849
(dp5850
g3155
I1
ss(g2640
S'Royal'
p5851
tp5852
(dp5853
g1929
I1
ss(g851
g854
tp5854
(dp5855
g2712
I1
ss(g3833
g3836
tp5856
(dp5857
g1744
I1
ss(g1834
g1837
tp5858
(dp5859
g34
I1
ss(g2579
g3910
tp5860
(dp5861
g34
I1
sS'Victoria'
p5862
I1
ss(g3205
g16
tp5863
(dp5864
g5714
I1
sS'Australian'
p5865
I1
sg5828
I1
sS'General'
p5866
I1
ss(g980
g983
tp5867
(dp5868
g3158
I1
ss(g4556
S'London,'
p5869
tp5870
(dp5871
g3738
I1
ss(g2598
g3017
tp5872
(dp5873
g5345
I3
ss(g1725
g16
tp5874
(dp5875
g5223
I1
ss(g165
g168
tp5876
(dp5877
S'Australia'
p5878
I1
ss(g4766
g4769
tp5879
(dp5880
g4712
I1
ss(g2143
g1700
tp5881
(dp5882
g1701
I1
ss(g1211
g1214
tp5883
(dp5884
g16
I1
ss(S'ANZUS'
p5885
S'Military'
p5886
tp5887
(dp5888
S'Machinery'
p5889
I1
ss(g5411
g2069
tp5890
(dp5891
g2070
I1
ss(g1829
g1832
tp5892
(dp5893
S'of'
p5894
I1
ss(g2732
g2735
tp5895
(dp5896
S'of'
p5897
I1
ss(S'Australian'
p5898
g1886
tp5899
(dp5900
g1887
I1
ss(g4193
g2743
tp5901
(dp5902
g16
I1
ss(g3774
S'Organisation'
p5903
tp5904
(dp5905
g34
I1
ss(g2661
S'128'
p5906
tp5907
(dp5908
S'and'
p5909
I1
ss(g1083
g16
tp5910
(dp5911
g3179
I1
ss(g783
S'security'
p5912
tp5913
(dp5914
g34
I1
ss(g323
g327
tp5915
(dp5916
g1386
I1
ss(S'officers'
p5917
S'or'
p5918
tp5919
(dp5920
S'Ministers'
p5921
I1
ss(g3151
g3154
tp5922
(dp5923
g5301
I1
ss(g260
g2411
tp5924
(dp5925
g2412
I1
sS'Bribane'
p5926
I1
ss(S'Industry'
p5927
S'and'
p5928
tp5929
(dp5930
g3490
I1
ss(g2010
g5167
tp5931
(dp5932
g5168
I1
ss(S'yard'
p5933
S'and'
p5934
tp5935
(dp5936
g1416
I1
ss(g3739
g3742
tp5937
(dp5938
S'relating'
p5939
I1
ss(g3766
g1376
tp5940
(dp5941
g1377
I2
ss(g1985
g16
tp5942
(dp5943
g4366
I1
sg3501
I1
ss(g16
g747
tp5944
(dp5945
g5795
I1
ss(g1424
g1427
tp5946
(dp5947
g5353
I1
ss(g16
g437
tp5948
(dp5949
g2220
I1
ss(g16
g2877
tp5950
(dp5951
g837
I1
ss(g260
S'Norman'
p5952
tp5953
(dp5954
S'McDonald'
p5955
I1
ss(g4253
g5639
tp5956
(dp5957
g5640
I1
ss(g289
g872
tp5958
(dp5959
g873
I1
ss(g2508
g3250
tp5960
(dp5961
g3251
I1
ss(g2826
g1109
tp5962
(dp5963
g389
I1
ss(g183
S'1954'
p5964
tp5965
(dp5966
g3002
I1
ss(g54
g57
tp5967
(dp5968
S'of'
p5969
I3
ss(S'Paas,'
p5970
S'Hubert'
p5971
tp5972
(dp5973
S'Joseph'
p5974
I1
ss(g1241
g1244
tp5975
(dp5976
g4497
I1
sg2184
I1
ss(g49
g52
tp5977
(dp5978
g34
I1
ss(g3851
g3854
tp5979
(dp5980
S'Chi'
p5981
I2
ss(S'Anne'
p5982
S'NEILL.'
p5983
tp5984
(dp5985
g2815
I1
ss(g5506
S'aid'
p5986
tp5987
(dp5988
S'to'
p5989
I1
ss(g16
g1778
tp5990
(dp5991
S'Australia,'
p5992
I4
sg1779
I4
ss(S'Organisation.'
p5993
g1003
tp5994
(dp5995
g3382
I1
ss(g426
g16
tp5996
(dp5997
S'Republic'
p5998
I1
sg2785
I1
sS'Armed'
p5999
I1
sg2919
I1
sg5820
I1
ss(S'document:'
p6000
g4899
tp6001
(dp6002
g1428
I1
ss(g1786
g1843
tp6003
(dp6004
g1844
I1
ss(g16
g3945
tp6005
(dp6006
g3540
I2
sS'Lexi'
p6007
I1
ss(g5416
g2603
tp6008
(dp6009
g2604
I1
ss(g1827
g4116
tp6010
(dp6011
g16
I2
ss(g286
g289
tp6012
(dp6013
g872
I1
ss(g5934
g1416
tp6014
(dp6015
g16
I1
ss(S'of'
p6016
S'Soviet'
p6017
tp6018
(dp6019
g4576
I1
ss(S'the'
p6020
S'Canadian'
p6021
tp6022
(dp6023
g5322
I1
ss(g260
g5380
tp6024
(dp6025
g5132
I6
ss(g64
g16
tp6026
(dp6027
g1709
I1
sg3369
I1
sS'Political'
p6028
I1
sS'reported'
p6029
I1
ss(g1440
S'Meeting,'
p6030
tp6031
(dp6032
S'Melbourne,'
p6033
I1
ss(S'Australia.'
p6034
g2678
tp6035
(dp6036
g34
I1
ss(g260
S'Quinpart'
p6037
tp6038
(dp6039
S'Intelligence'
p6040
I1
ss(g3417
g1281
tp6041
(dp6042
g1282
I1
ss(g3868
g2805
tp6043
(dp6044
g2806
I1
ss(S'Currency'
p6045
g16
tp6046
(dp6047
S'Miscellaneous'
p6048
I1
ss(g5955
S'RICHMOND'
p6049
tp6050
(dp6051
g34
I1
ss(g16
g5105
tp6052
(dp6053
g5411
I1
ss(g4131
S'volume'
p6054
tp6055
(dp6056
g2553
I1
ss(g3083
g2564
tp6057
(dp6058
g2339
I1
ss(g1346
g16
tp6059
(dp6060
g963
I4
ss(g4190
g4193
tp6061
(dp6062
g2743
I1
ss(S'Security'
p6063
S'Services'
p6064
tp6065
(dp6066
g34
I1
ss(g16
g4072
tp6067
(dp6068
g34
I1
ss(g2014
g2017
tp6069
(dp6070
S'the'
p6071
I1
ss(g16
g5137
tp6072
(dp6073
S'enquiries'
p6074
I1
ss(S'The'
p6075
g326
tp6076
(dp6077
g5473
I1
ss(g1223
g1226
tp6078
(dp6079
g34
I1
ss(g1004
g1253
tp6080
(dp6081
S'the'
p6082
I1
ss(g2361
g266
tp6083
(dp6084
g267
I1
ss(g16
S'Katherine'
p6085
tp6086
(dp6087
g16
I1
ss(g4268
g1354
tp6088
(dp6089
g1355
I1
ss(g4215
g4218
tp6090
(dp6091
S'Volume'
p6092
I1
ss(g1868
g5695
tp6093
(dp6094
g5696
I1
ss(g2034
g1645
tp6095
(dp6096
g16
I1
ss(g3420
g3423
tp6097
(dp6098
S'information'
p6099
I1
ss(g16
g944
tp6100
(dp6101
g3205
I1
ss(g3808
g3811
tp6102
(dp6103
g5246
I1
ss(g3957
g16
tp6104
(dp6105
S'New'
p6106
I1
sS'Visit'
p6107
I1
ss(g16
S'RAAF'
p6108
tp6109
(dp6110
g30
I1
ss(g2628
g16
tp6111
(dp6112
g4808
I1
ss(S'war'
p6113
g3798
tp6114
(dp6115
g3799
I1
ss(g2581
g2584
tp6116
(dp6117
g267
I1
ss(g5939
g2205
tp6118
(dp6119
g3607
I1
sg2206
I1
ss(g5592
g16
tp6120
(dp6121
g4288
I1
ss(S'and'
p6122
g5481
tp6123
(dp6124
g16
I1
ss(g2070
g2073
tp6125
(dp6126
g34
I1
ss(S'Security'
p6127
S'Services,'
p6128
tp6129
(dp6130
g5664
I1
ss(g1267
g281
tp6131
(dp6132
g282
I1
ss(g4688
g4691
tp6133
(dp6134
g4874
I1
sg3957
I2
sS'Committee'
p6135
I7
sg2870
I1
sg3869
I1
sg730
I1
ss(g481
g2010
tp6136
(dp6137
g5167
I1
ss(g3233
g1342
tp6138
(dp6139
g751
I1
ss(g260
g5438
tp6140
(dp6141
g5439
I1
ss(g16
g145
tp6142
(dp6143
g146
I1
ss(g1380
g4342
tp6144
(dp6145
g4343
I2
ss(g491
g5608
tp6146
(dp6147
g34
I2
ss(S'countries'
p6148
g1999
tp6149
(dp6150
g2000
I1
ss(g795
g798
tp6151
(dp6152
g241
I1
ss(g743
S'Committee'
p6153
tp6154
(dp6155
g34
I2
ss(g277
g280
tp6156
(dp6157
g1123
I1
ss(g1879
g1882
tp6158
(dp6159
S'Branch.'
p6160
I1
ss(g2588
g1824
tp6161
(dp6162
g16
I2
ss(g16
S'cables.'
p6163
tp6164
(dp6165
g1787
I1
ss(g2795
S'forces'
p6166
tp6167
(dp6168
g34
I1
ss(g16
g1842
tp6169
(dp6170
g34
I1
ss(g6108
g30
tp6171
(dp6172
g31
I1
ss(S'screening'
p6173
g3489
tp6174
(dp6175
g16
I1
ss(g260
g3895
tp6176
(dp6177
g3896
I1
ss(g698
g701
tp6178
(dp6179
S'programs'
p6180
I1
ss(g260
S'Claims'
p6181
tp6182
(dp6183
g1254
I1
ss(g1171
g1174
tp6184
(dp6185
g16
I1
ss(S'meetings'
p6186
S'of'
p6187
tp6188
(dp6189
S'the'
p6190
I1
ss(g75
g154
tp6191
(dp6192
g155
I1
ss(g260
g5281
tp6193
(dp6194
g3115
I3
ss(g4502
g4786
tp6195
(dp6196
g2333
I1
ss(g2811
g2814
tp6197
(dp6198
S'parties'
p6199
I1
ss(g2675
g3229
tp6200
(dp6201
g3230
I1
ss(g1649
g16
tp6202
(dp6203
S'Washington'
p6204
I1
ss(S'Anne'
p6205
g544
tp6206
(dp6207
g545
I1
ss(S'troops'
p6208
g4641
tp6209
(dp6210
g4642
I1
ss(S'JIC'
p6211
g16
tp6212
(dp6213
S'Australian'
p6214
I2
ss(g3458
g1724
tp6215
(dp6216
g1725
I1
ss(g3178
g4775
tp6217
(dp6218
g4776
I1
ss(g16
g5109
tp6219
(dp6220
g2171
I1
ss(g260
g3413
tp6221
(dp6222
g16
I1
ss(g3516
g5022
tp6223
(dp6224
S'cell'
p6225
I1
ss(g1068
g1072
tp6226
(dp6227
g2482
I1
sg762
I1
sg3859
I2
ss(g3505
g16
tp6228
(dp6229
S'Tuesday'
p6230
I1
sg174
I1
sS'22'
p6231
I1
ss(g113
g16
tp6232
(dp6233
g3080
I1
ss(S'item'
p6234
g4249
tp6235
(dp6236
g4250
I1
ss(g16
g664
tp6237
(dp6238
g665
I1
ss(g2967
g2970
tp6239
(dp6240
S'nicknames'
p6241
I1
ss(g5033
S'PETROV'
p6242
tp6243
(dp6244
g34
I1
ss(g260
g4203
tp6245
(dp6246
g4204
I1
ss(g4985
g1869
tp6247
(dp6248
g1870
I1
ss(g260
S'Shooting'
p6249
tp6250
(dp6251
g5738
I1
ss(S'Employee'
p6252
g1073
tp6253
(dp6254
g16
I1
ss(g5323
g5202
tp6255
(dp6256
g3899
I1
sg1088
I1
sg2594
I2
sg1515
I1
sg5024
I2
sg1006
I1
ss(g260
g5982
tp6257
(dp6258
g5983
I1
ss(g3447
g2272
tp6259
(dp6260
g2273
I3
ss(S'doors'
p6261
S'and'
p6262
tp6263
(dp6264
S'benches'
p6265
I1
ss(g2170
g4752
tp6266
(dp6267
g4426
I1
ss(g260
g2589
tp6268
(dp6269
g2590
I1
ss(g4078
g4081
tp6270
(dp6271
g2898
I1
ss(g2424
g487
tp6272
(dp6273
g16
I1
ss(g3056
g16
tp6274
(dp6275
g815
I1
ss(g559
g562
tp6276
(dp6277
S'meeting'
p6278
I2
ss(g4811
g16
tp6279
(dp6280
S'Relations'
p6281
I4
ss(g16
g58
tp6282
(dp6283
g59
I1
ss(g456
S'Enlarged'
p6284
tp6285
(dp6286
S'Committee'
p6287
I1
ss(g260
g2116
tp6288
(dp6289
g2117
I1
ss(g260
g20
tp6290
(dp6291
g21
I1
ss(g1429
g1432
tp6292
(dp6293
g1580
I1
ss(g2794
g655
tp6294
(dp6295
g656
I1
ss(S'satellite'
p6296
g6113
tp6297
(dp6298
g3798
I1
ss(g3026
g3029
tp6299
(dp6300
g4766
I1
ss(g16
g742
tp6301
(dp6302
g2404
I1
ss(g16
g2489
tp6303
(dp6304
S'offenders'
p6305
I1
sS'papers'
p6306
I1
ss(g260
S'Lecture'
p6307
tp6308
(dp6309
S'handouts'
p6310
I1
ss(g1557
g1560
tp6311
(dp6312
g5582
I1
ss(S'Michael'
p6313
g5174
tp6314
(dp6315
g3903
I1
ss(g260
g4209
tp6316
(dp6317
g4210
I1
ss(g260
g3954
tp6318
(dp6319
g1641
I1
ss(g5189
g5192
tp6320
(dp6321
g2664
I1
ss(g6029
g4522
tp6322
(dp6323
g4523
I1
ss(g3163
g3166
tp6324
(dp6325
g4478
I1
ss(S'Committee.'
p6326
S'Fourth'
p6327
tp6328
(dp6329
S'meeting,'
p6330
I1
ss(g962
g3287
tp6331
(dp6332
S'Branch'
p6333
I1
ss(g5080
g5083
tp6334
(dp6335
g5707
I1
sS'Defence'
p6336
I1
sg2635
I6
ss(S'JIC'
p6337
g3670
tp6338
(dp6339
g3671
I1
ss(g2206
g2209
tp6340
(dp6341
g34
I1
ss(g5369
g5745
tp6342
(dp6343
g34
I1
ss(g2863
g2866
tp6344
(dp6345
S'Relations'
p6346
I1
ss(g4997
g4337
tp6347
(dp6348
g4338
I1
ss(S'SEATO'
p6349
g2033
tp6350
(dp6351
g2034
I1
ss(g2340
g2343
tp6352
(dp6353
g34
I1
ss(g3886
g1337
tp6354
(dp6355
g1338
I1
ss(g1913
g1916
tp6356
(dp6357
g39
I1
ss(S'NSW'
p6358
g1277
tp6359
(dp6360
g1278
I1
ss(S'Cabin'
p6361
g5284
tp6362
(dp6363
g5285
I1
ss(g16
g6029
tp6364
(dp6365
g4522
I1
ss(g4338
g4341
tp6366
(dp6367
S'Organisations'
p6368
I1
ss(g5696
g5699
tp6369
(dp6370
g34
I1
ss(g5814
g5817
tp6371
(dp6372
S'of'
p6373
I1
ss(g5623
g4073
tp6374
(dp6375
g4074
I1
ss(S'Byrne'
p6376
g4706
tp6377
(dp6378
g2553
I1
ss(g1053
g1056
tp6379
(dp6380
g3417
I1
ss(g6163
g1787
tp6381
(dp6382
g1487
I1
ss(g260
g2801
tp6383
(dp6384
g2802
I1
ss(g2766
g3496
tp6385
(dp6386
g34
I1
ss(g260
g4214
tp6387
(dp6388
g4215
I1
ss(g1898
g1901
tp6389
(dp6390
g1955
I1
ss(g260
g3044
tp6391
(dp6392
g3045
I1
ss(g3656
g3659
tp6393
(dp6394
g2262
I1
ss(g5346
g5349
tp6395
(dp6396
S'United'
p6397
I3
ss(g260
g260
tp6398
(dp6399
g5805
I1
sg4490
I7
sg4942
I1
sg4633
I1
sg1262
I1
sg3946
I1
sg4620
I1
sS'Political'
p6400
I1
sg3083
I1
sg4134
I1
sg131
I7
sg5692
I1
sS'Anti-communist'
p6401
I1
sg4292
I1
sg1912
I1
sg3465
I1
sg418
I100
sg6045
I1
sg941
I1
sg824
I1
sS'Sinking'
p6402
I2
sg851
I2
sg5380
I6
sg3388
I1
sg1879
I1
sg739
I18
sg1898
I5
sg4268
I1
sg4351
I2
sg5182
I1
sg3766
I2
sg212
I1
sg3665
I4
sg3876
I1
sg2099
I1
sg1650
I1
sS'Croatians'
p6403
I1
sS'Prime'
p6404
I1
sS'JIC'
p6405
I7
sg3775
I1
sg2364
I2
sS'Project'
p6406
I1
sg3808
I2
sg5281
I3
sg261
I2
sg1811
I2
sS'CONAGHAN,'
p6407
I1
sg3317
I1
sS'RAVLICH,'
p6408
I1
sg3413
I1
sS'ASIS'
p6409
I2
sg3615
I1
sg4151
I2
sg4113
I1
sg4025
I1
sg846
I1
sg1687
I2
sS'Black'
p6410
I1
sg5595
I2
sg785
I2
sg5495
I1
sg1963
I1
sg4214
I1
sS'Documents'
p6411
I1
sg5498
I1
sg1266
I1
sg3391
I2
sS'NEILL,'
p6412
I1
sg602
I1
sg5080
I3
sg1419
I1
sg4197
I1
sg2801
I1
sg3998
I1
sg1534
I3
sg1562
I1
sg63
I2
sg5982
I1
sg1494
I1
sg4059
I1
sg4209
I1
sg5576
I2
sg3011
I1
sg2252
I1
sS'Singapore'
p6413
I2
sg2355
I2
sg720
I1
sg2233
I1
sg541
I5
sg3379
I1
sg2496
I5
sS'Tasmania'
p6414
I1
sg2585
I2
sg1770
I1
sg5521
I1
sg5261
I1
sg48
I1
sg1855
I1
sS'JUST'
p6415
I1
sg1102
I1
sg2417
I13
sg638
I1
sg1958
I1
sg4997
I1
sg414
I1
sg573
I1
sg5208
I1
sg2589
I1
sg3486
I6
sg1458
I1
sg5952
I1
sg3687
I2
sg3576
I1
sS'NEUMANN'
p6416
I1
sg5632
I1
sg4716
I7
sg20
I1
sS'Disarmament'
p6417
I1
sg3651
I1
sS'Strategic'
p6418
I1
sg779
I8
sS'Vietnam'
p6419
I2
sg1127
I1
sg4811
I4
sg1215
I3
sg4423
I1
sg2544
I2
sg1575
I4
sg2715
I1
sg2302
I1
sS'Royal'
p6420
I2
sg2116
I1
sg2971
I1
sg3954
I1
sg4598
I6
sg193
I1
sg347
I1
sg6361
I1
sS'Malaya'
p6421
I1
sg3708
I1
sg1220
I1
sg3561
I1
sg5970
I4
sg2863
I1
sS'Cuba/Communist'
p6422
I1
sS'Immigration'
p6423
I2
sS'Tanganyika'
p6424
I1
sg1408
I1
sg2305
I2
sg970
I1
sg1498
I2
sg6037
I1
sg1024
I1
sg4203
I1
sg4034
I1
sg6252
I1
sg3167
I1
sg4066
I1
sg6181
I1
sg2532
I1
sg1801
I1
sg3498
I1
sg3018
I1
sg4629
I1
sS'Office'
p6425
I1
sg3895
I1
sg2237
I1
sg5060
I1
sg2943
I1
sS'Colin'
p6426
I1
sg4182
I1
sg4593
I1
sg4375
I1
sg2057
I1
sg3044
I1
sg4835
I2
sg1624
I1
sS'Special'
p6427
I2
sg5232
I1
sg2505
I1
sg2911
I1
sg2066
I1
sg2950
I1
sg5438
I1
sg290
I1
sg3833
I1
sg3841
I3
sg4515
I1
sg6307
I1
sg2679
I3
sS'Main'
p6428
I1
sg4623
I1
sg5275
I1
sg1948
I11
sg4914
I4
sg2490
I1
sg3233
I1
sg139
I1
sg676
I1
sg5652
I1
sg577
I1
sg2915
I1
sS'BALZI,'
p6429
I1
sg4242
I1
sg5511
I1
sg3124
I1
sg3241
I1
sg2493
I1
sg1891
I1
sS'Deployment'
p6430
I1
sg1441
I1
sg2555
I1
sg5677
I1
sg2757
I2
sg3071
I1
sg5399
I1
sg4346
I1
sg1637
I1
sg3702
I1
sg3936
I1
sg511
I2
sg1883
I1
sS'Reports'
p6431
I2
sg5243
I1
sg2180
I1
sg109
I1
sg3245
I1
sg2687
I1
sg829
I1
sg323
I4
sg3599
I9
sg1140
I1
sg2967
I1
sg2411
I2
sg5885
I5
sg1068
I9
sg5463
I3
sg2201
I1
sS'Radio'
p6432
I3
sg1602
I1
sg5004
I1
sg6249
I1
ss(g16
g5531
tp6433
(dp6434
g363
I1
sg34
I1
sg16
I3
ss(g16
g5274
tp6435
(dp6436
S'review'
p6437
I3
ss(g1327
g2371
tp6438
(dp6439
g2927
I1
ss(g552
g1395
tp6440
(dp6441
g1396
I1
ss(g3246
g3249
tp6442
(dp6443
g3829
I1
ss(g82
g85
tp6444
(dp6445
S'March'
p6446
I1
ss(S'Notes'
p6447
g2749
tp6448
(dp6449
g5100
I1
ss(g4470
S'Communist'
p6450
tp6451
(dp6452
S'Party'
p6453
I1
ss(g622
g16
tp6454
(dp6455
g2316
I1
ss(g39
g1186
tp6456
(dp6457
g1187
I1
ss(g260
g6417
tp6458
(dp6459
g16
I1
ss(g5624
S'Bloc'
p6460
tp6461
(dp6462
g34
I1
ss(g6054
g2553
tp6463
(dp6464
g34
I2
ss(g2344
g2348
tp6465
(dp6466
g2570
I1
ss(S'of'
p6467
g903
tp6468
(dp6469
g34
I1
ss(g2748
g3963
tp6470
(dp6471
g34
I1
ss(g3443
g3446
tp6472
(dp6473
S'aircraft'
p6474
I1
ss(g267
S'Military'
p6475
tp6476
(dp6477
g1907
I1
ss(g3548
g3551
tp6478
(dp6479
g5781
I1
sg34
I1
ss(g3200
g2121
tp6480
(dp6481
g2122
I1
ss(g5022
g6225
tp6482
(dp6483
g6261
I1
ss(g6262
g6265
tp6484
(dp6485
g34
I1
ss(g3754
g1672
tp6486
(dp6487
g1673
I1
ss(g3596
g3376
tp6488
(dp6489
g2905
I1
ss(g3747
g4892
tp6490
(dp6491
g4893
I1
ss(g4653
g5068
tp6492
(dp6493
g34
I1
ss(S'Memorandum'
p6494
g5201
tp6495
(dp6496
g16
I1
ss(S'New'
p6497
g591
tp6498
(dp6499
S'illegal'
p6500
I1
ss(g6336
g4557
tp6501
(dp6502
g5125
I1
ss(g614
g617
tp6503
(dp6504
g4077
I1
ss(g5270
g5034
tp6505
(dp6506
g5035
I1
ss(g122
g2661
tp6507
(dp6508
g5906
I1
ss(g6431
g3162
tp6509
(dp6510
g3163
I1
ss(g260
g6428
tp6511
(dp6512
g4254
I1
ss(g16
g754
tp6513
(dp6514
g4159
I1
ss(S'Intelligence'
p6515
S'talks'
p6516
tp6517
(dp6518
g34
I1
ss(g3121
g2500
tp6519
(dp6520
g2501
I1
ss(g421
g3660
tp6521
(dp6522
g549
I1
sS'Australia.'
p6523
I30
sg3661
I68
sg3826
I1
ss(g1493
g2046
tp6524
(dp6525
g2047
I1
ss(g4599
g267
tp6526
(dp6527
g3950
I6
ss(g5108
g114
tp6528
(dp6529
g115
I1
ss(g16
g19
tp6530
(dp6531
g3991
I1
ss(g260
g6430
tp6532
(dp6533
S'of'
p6534
I1
ss(g786
g789
tp6535
(dp6536
g4755
I2
ss(g6407
g105
tp6537
(dp6538
g106
I1
ss(g1678
g1681
tp6539
(dp6540
S'Harbour,'
p6541
I1
ss(g260
g1262
tp6542
(dp6543
g1263
I1
ss(g260
g5970
tp6544
(dp6545
g4545
I1
sg4934
I1
sg5971
I1
sS'Yvonne'
p6546
I1
ss(g3771
g3774
tp6547
(dp6548
g5903
I1
ss(g3060
g16
tp6549
(dp6550
g2771
I1
ss(g996
g999
tp6551
(dp6552
S'on'
p6553
I1
ss(g2220
g2223
tp6554
(dp6555
g34
I1
ss(g3720
g3784
tp6556
(dp6557
g3785
I1
ss(g260
g4942
tp6558
(dp6559
g4943
I1
ss(g1569
g2774
tp6560
(dp6561
g2775
I1
ss(g80
S'in'
p6562
tp6563
(dp6564
S'Washington'
p6565
I1
ss(g855
g3211
tp6566
(dp6567
g3212
I1
ss(S'Australia.'
p6568
S'New'
p6569
tp6570
(dp6571
S'South'
p6572
I5
ss(g16
g3292
tp6573
(dp6574
g34
I1
ss(g5352
S'Foreign'
p6575
tp6576
(dp6577
S'Counterintelligence'
p6578
I1
ss(g2704
g2707
tp6579
(dp6580
g4846
I2
ss(g4636
g4649
tp6581
(dp6582
g4650
I1
ss(g3650
g610
tp6583
(dp6584
g4222
I2
ss(g1954
g3763
tp6585
(dp6586
g1345
I4
ss(g3302
S'1955'
p6587
tp6588
(dp6589
g34
I1
ss(g16
g4518
tp6590
(dp6591
g4519
I1
ss(g260
g1562
tp6592
(dp6593
g553
I1
ss(g16
g5112
tp6594
(dp6595
g5802
I1
ss(S'Security'
p6596
g40
tp6597
(dp6598
g41
I1
ss(g260
g3379
tp6599
(dp6600
g1044
I1
ss(g3872
g5258
tp6601
(dp6602
g2103
I1
ss(g260
g4620
tp6603
(dp6604
g16
I1
ss(g4455
g3062
tp6605
(dp6606
S'and'
p6607
I1
ss(g1403
g3686
tp6608
(dp6609
g4456
I1
ss(g3001
g2623
tp6610
(dp6611
g2624
I3
ss(g4682
g4685
tp6612
(dp6613
g2855
I1
sg34
I2
ss(g2185
g276
tp6614
(dp6615
g277
I1
ss(g842
g845
tp6616
(dp6617
g494
I1
ss(g1537
g16
tp6618
(dp6619
S'Part'
p6620
I1
sg1865
I1
ss(g1745
g1748
tp6621
(dp6622
g1766
I1
ss(g6048
g6305
tp6623
(dp6624
g34
I1
ss(g4343
g3402
tp6625
(dp6626
g3403
I2
ss(g256
g259
tp6627
(dp6628
g34
I1
ss(g5763
g5766
tp6629
(dp6630
g2527
I1
ss(g2761
S'Zielinski'
p6631
tp6632
(dp6633
g34
I1
ss(g5921
g5384
tp6634
(dp6635
g429
I1
ss(g3079
g16
tp6636
(dp6637
S'Volume'
p6638
I1
ss(g260
g4490
tp6639
(dp6640
g1705
I2
sg2850
I1
sg2559
I4
ss(g1472
g1475
tp6641
(dp6642
g2229
I1
ss(g1358
S'volume'
p6643
tp6644
(dp6645
g2553
I1
ss(g5435
g16
tp6646
(dp6647
g462
I1
sg1936
I1
ss(g1734
g2045
tp6648
(dp6649
g34
I1
ss(g554
g557
tp6650
(dp6651
g3196
I1
sg3130
I2
sg820
I1
ss(g85
g6446
tp6652
(dp6653
g1404
I1
ss(g16
g5118
tp6654
(dp6655
g5710
I1
ss(S'Kingdom'
p6656
g4493
tp6657
(dp6658
g2517
I1
ss(S'Affairs'
p6659
g2638
tp6660
(dp6661
g3225
I1
ss(g1774
g1777
tp6662
(dp6663
S'Australia'
p6664
I1
ss(g520
S'Addresses'
p6665
tp6666
(dp6667
g34
I1
ss(g2501
g2504
tp6668
(dp6669
g34
I1
ss(S'with'
p6670
g3365
tp6671
(dp6672
S'Korea'
p6673
I1
ss(g1865
g1868
tp6674
(dp6675
g5695
I1
ss(g6028
g3969
tp6676
(dp6677
S'General'
p6678
I1
ss(g1733
g16
tp6679
(dp6680
g664
I1
ss(g260
g4716
tp6681
(dp6682
S'and'
p6683
I1
sg207
I2
sg3007
I1
sg1053
I1
sg4717
I1
sg2692
I1
ss(g6017
g4576
tp6684
(dp6685
g4577
I1
ss(g260
g6407
tp6686
(dp6687
g105
I1
ss(g1701
g1704
tp6688
(dp6689
g2388
I1
ss(g6327
g6330
tp6690
(dp6691
g5570
I1
ss(g767
g770
tp6692
(dp6693
g1828
I1
ss(g16
g6230
tp6694
(dp6695
S'19'
p6696
I1
ss(g1962
S'Volume'
p6697
tp6698
(dp6699
S'2.'
p6700
I1
ss(g4565
S'Boundaries'
p6701
tp6702
(dp6703
S'between'
p6704
I3
ss(g260
g4515
tp6705
(dp6706
g592
I1
ss(g2391
g3431
tp6707
(dp6708
S'Australia'
p6709
I1
ss(g16
g3894
tp6710
(dp6711
g5152
I1
ss(g1601
g4390
tp6712
(dp6713
g6313
I1
ss(g5217
g5220
tp6714
(dp6715
g34
I1
ss(g5595
g5598
tp6716
(dp6717
g2536
I1
ss(g2792
g5375
tp6718
(dp6719
S'the'
p6720
I1
ss(g1739
g1743
tp6721
(dp6722
g34
I1
ss(g260
g5243
tp6723
(dp6724
g1106
I1
ss(g3338
g3341
tp6725
(dp6726
g597
I1
ss(g3820
g3823
tp6727
(dp6728
S'the'
p6729
I1
ss(g5035
g4358
tp6730
(dp6731
g4359
I1
ss(S'SIMPSON'
p6732
g16
tp6733
(dp6734
S'Volume'
p6735
I1
ss(S'SEATO'
p6736
g558
tp6737
(dp6738
g559
I1
ss(g282
g285
tp6739
(dp6740
g34
I1
ss(g2289
g3274
tp6741
(dp6742
g2372
I1
ss(S'on'
p6743
g2184
tp6744
(dp6745
g2185
I1
ss(g617
g4077
tp6746
(dp6747
g4078
I1
ss(S'Representatives'
p6748
S'to'
p6749
tp6750
(dp6751
g5023
I2
ss(g260
g6410
tp6752
(dp6753
S'September'
p6754
I1
ss(g3680
g3683
tp6755
(dp6756
S'Alfred'
p6757
I2
ss(g1200
g1203
tp6758
(dp6759
S'same.'
p6760
I1
ss(g1457
S'Communist'
p6761
tp6762
(dp6763
g1161
I1
sS'Party'
p6764
I1
sg5986
I1
ss(g77
g80
tp6765
(dp6766
g6562
I1
ss(g5261
g16
tp6767
(dp6768
S'Relations'
p6769
I1
ss(g5766
g2527
tp6770
(dp6771
g2528
I1
ss(g806
g1033
tp6772
(dp6773
g1034
I2
ss(S'Commonwealth'
p6774
g3473
tp6775
(dp6776
g3474
I1
ss(g16
g236
tp6777
(dp6778
g237
I1
ss(g2537
g2540
tp6779
(dp6780
S'relation'
p6781
I1
ss(g5576
g1691
tp6782
(dp6783
g1692
I1
ss(g4384
g4387
tp6784
(dp6785
g34
I1
ss(g16
g2224
tp6786
(dp6787
g2225
I1
ss(g260
g6409
tp6788
(dp6789
g311
I1
sg1011
I1
ss(g524
g5773
tp6790
(dp6791
S'of'
p6792
I1
ss(S'Australia,'
p6793
S'Bunbury'
p6794
tp6795
(dp6796
g34
I1
ss(g3217
g3220
tp6797
(dp6798
g6016
I1
ss(g260
g6400
tp6799
(dp6800
g4381
I1
ss(g5137
g6074
tp6801
(dp6802
g1199
I1
ss(g3186
g2188
tp6803
(dp6804
g2189
I1
ss(g5030
g5033
tp6805
(dp6806
g6242
I1
ss(g2493
g1084
tp6807
(dp6808
g1085
I1
ss(g2718
g3295
tp6809
(dp6810
S'Political'
p6811
I1
ss(g4017
g4451
tp6812
(dp6813
g4452
I1
ss(g4626
g364
tp6814
(dp6815
g34
I1
ss(S'of'
p6816
S'tank'
p6817
tp6818
(dp6819
g922
I1
ss(g4633
g4636
tp6820
(dp6821
g4649
I1
ss(g16
g4366
tp6822
(dp6823
g4367
I1
ss(g2665
g2668
tp6824
(dp6825
g34
I1
ss(g4971
g4974
tp6826
(dp6827
g5840
I1
ss(g298
g16
tp6828
(dp6829
g1445
I1
ss(g16
g3291
tp6830
(dp6831
g34
I1
ss(g222
g225
tp6832
(dp6833
g2947
I1
ss(S'General'
p6834
g1597
tp6835
(dp6836
g1598
I1
ss(g2348
g2570
tp6837
(dp6838
g2571
I1
ss(g260
g6426
tp6839
(dp6840
g6732
I1
ss(g5083
g2635
tp6841
(dp6842
g877
I5
sg3973
I1
ss(g1101
g384
tp6843
(dp6844
g385
I1
ss(g3295
g6811
tp6845
(dp6846
S'Circles'
p6847
I1
ss(g3551
g5781
tp6848
(dp6849
g5782
I1
ss(g3845
g5019
tp6850
(dp6851
S'Treaty.'
p6852
I1
ss(S'London'
p6853
S'reports'
p6854
tp6855
(dp6856
g34
I1
ss(g1439
g1738
tp6857
(dp6858
g3964
I2
ss(g983
g3158
tp6859
(dp6860
g3159
I1
ss(S'Submission'
p6861
g44
tp6862
(dp6863
g16
I1
ss(g4789
g16
tp6864
(dp6865
g6085
I1
ss(g1538
g16
tp6866
(dp6867
g4762
I1
ss(g5971
g5974
tp6868
(dp6869
g34
I1
ss(g260
g3498
tp6870
(dp6871
g1328
I1
ss(g2025
g4949
tp6872
(dp6873
g4950
I1
ss(g260
g5232
tp6874
(dp6875
g5233
I1
ss(g16
g1827
tp6876
(dp6877
g4116
I2
ss(g16
g47
tp6878
(dp6879
g298
I1
ss(g6562
g6565
tp6880
(dp6881
g34
I1
ss(g2181
g680
tp6882
(dp6883
g681
I1
ss(g16
g734
tp6884
(dp6885
g735
I1
ss(g260
g2237
tp6886
(dp6887
g1292
I1
ss(g2347
g53
tp6888
(dp6889
g54
I1
ss(g1609
g4575
tp6890
(dp6891
S'Branch'
p6892
I1
ss(g4287
g5207
tp6893
(dp6894
g34
I1
ss(g1525
g1528
tp6895
(dp6896
g5559
I1
ss(g16
g4429
tp6897
(dp6898
g4430
I1
ss(g260
g6414
tp6899
(dp6900
g16
I1
ss(g6249
g5738
tp6901
(dp6902
g3309
I1
ss(g4399
g4435
tp6903
(dp6904
S'Steel,'
p6905
I1
ss(S'of'
p6906
g6523
tp6907
(dp6908
g4154
I1
sS'Branches'
p6909
I4
sg5163
I1
sS'Victoria.'
p6910
I1
sg2576
I1
sg929
I1
sg4486
I1
sg3744
I3
sS'Social'
p6911
I1
sg1834
I1
sg6569
I5
sg4467
I1
sg716
I1
sg71
I9
ss(g260
g6421
tp6912
(dp6913
g16
I1
ss(g6085
g16
tp6914
(dp6915
g5342
I1
ss(g5605
g1092
tp6916
(dp6917
g1093
I1
ss(g1663
g1666
tp6918
(dp6919
g34
I1
ss(g483
g486
tp6920
(dp6921
g842
I1
sg1020
I1
ss(g16
g6231
tp6922
(dp6923
g1991
I1
ss(g260
g6411
tp6924
(dp6925
g2880
I1
ss(S'Seabed'
p6926
g5097
tp6927
(dp6928
g1079
I1
ss(g260
g2490
tp6929
(dp6930
g2003
I1
ss(g260
g6412
tp6931
(dp6932
g6205
I1
ss(g4961
g2144
tp6933
(dp6934
g2145
I1
ss(S'Nations'
p6935
g5456
tp6936
(dp6937
g5457
I1
ss(g6416
S'Victor'
p6938
tp6939
(dp6940
g16
I1
ss(S'Political'
p6941
g3970
tp6942
(dp6943
S'with'
p6944
I1
ss(g2437
S'Submission'
p6945
tp6946
(dp6947
g34
I1
ss(g2379
g16
tp6948
(dp6949
g3447
I3
ss(S'States'
p6950
g4734
tp6951
(dp6952
g1590
I3
ss(g2195
g1529
tp6953
(dp6954
g1530
I1
ss(g260
g347
tp6955
(dp6956
g348
I1
ss(S'of'
p6957
g360
tp6958
(dp6959
g4284
I1
ss(g6754
g16
tp6960
(dp6961
g145
I1
ss(g2216
g2219
tp6962
(dp6963
g34
I6
ss(g260
g6415
tp6964
(dp6965
g1544
I1
ss(g5173
S'Africa'
p6966
tp6967
(dp6968
g34
I1
ss(g3282
g6816
tp6969
(dp6970
g6817
I1
ss(g5981
g338
tp6971
(dp6972
g339
I2
ss(g16
g905
tp6973
(dp6974
g882
I1
ss(g4327
g4330
tp6975
(dp6976
g5579
I1
ss(g260
g6402
tp6977
(dp6978
g2895
I2
ss(g6287
S'on'
p6979
tp6980
(dp6981
g5813
I1
ss(g2104
g2107
tp6982
(dp6983
g2779
I1
ss(g629
g2669
tp6984
(dp6985
g2079
I1
ss(g5229
g16
tp6986
(dp6987
g3420
I1
ss(S'Council'
p6988
g1471
tp6989
(dp6990
g1472
I1
ss(g1162
g375
tp6991
(dp6992
g376
I1
ss(g2496
g2499
tp6993
(dp6994
g990
I1
sg399
I1
sS'SEATO'
p6995
I1
sg625
I1
sg2423
I8
sg5452
I1
ss(g6074
g1199
tp6996
(dp6997
g1200
I1
ss(S'for'
p6998
g5762
tp6999
(dp7000
g5763
I1
ss(g1195
g1198
tp7001
(dp7002
S'Advisers'
p7003
I1
ss(g5208
g4568
tp7004
(dp7005
g4569
I1
ss(g5429
g6186
tp7006
(dp7007
g6187
I1
ss(g4081
g2898
tp7008
(dp7009
g2899
I1
ss(g2179
g5333
tp7010
(dp7011
g1819
I1
ss(g5495
g4662
tp7012
(dp7013
g4663
I1
ss(g4250
g4253
tp7014
(dp7015
g5639
I1
ss(g5514
g96
tp7016
(dp7017
g97
I1
ss(g264
g6296
tp7018
(dp7019
S'defectors'
p7020
I1
sg6113
I1
ss(g5564
g3816
tp7021
(dp7022
g6148
I1
ss(g260
g1958
tp7023
(dp7024
g1959
I1
ss(g4060
g4063
tp7025
(dp7026
S'suspects'
p7027
I1
ss(g16
g6204
tp7028
(dp7029
g34
I3
ss(S'of'
p7030
g5383
tp7031
(dp7032
g4082
I3
ss(g4367
g4370
tp7033
(dp7034
g5029
I1
ss(g2371
g2927
tp7035
(dp7036
g2928
I1
ss(g16
g255
tp7037
(dp7038
g256
I1
ss(g3602
g16
tp7039
(dp7040
g4587
I1
sg5927
I1
sS'Political'
p7041
I1
sS'Chinese'
p7042
I1
ss(S'the'
p7043
g3059
tp7044
(dp7045
g6326
I1
ss(g562
g6278
tp7046
(dp7047
g3547
I1
sS'Nov'
p7048
I1
ss(g1454
g1457
tp7049
(dp7050
g6761
I1
ss(g2038
g2041
tp7051
(dp7052
S'1960.'
p7053
I1
sg4446
I2
ss(g6428
g4254
tp7054
(dp7055
g4255
I1
ss(S'Military'
p7056
S'planning'
p7057
tp7058
(dp7059
S'to'
p7060
I1
ss(g1995
g1998
tp7061
(dp7062
g3332
I1
ss(g260
g4034
tp7063
(dp7064
g4035
I1
ss(g2982
g16
tp7065
(dp7066
g2877
I1
ss(g5817
g6373
tp7067
(dp7068
S'the'
p7069
I1
ss(g4202
g5294
tp7070
(dp7071
g34
I1
ss(g1540
g1543
tp7072
(dp7073
g34
I1
ss(g6546
S'Marie'
p7074
tp7075
(dp7076
g34
I1
ss(S'Australia.'
p7077
g6909
tp7078
(dp7079
g2957
I3
sS'Victoria'
p7080
I1
ss(g2590
g2593
tp7081
(dp7082
g1761
I1
ss(g2189
g2192
tp7083
(dp7084
g3409
I1
ss(g16
g468
tp7085
(dp7086
g469
I2
ss(g6430
g6534
tp7087
(dp7088
S'Australian'
p7089
I1
ss(S'Australia.'
p7090
g6910
tp7091
(dp7092
g515
I1
ss(g591
g6500
tp7093
(dp7094
S'apparatus'
p7095
I1
ss(S'Australia.'
p7096
g1975
tp7097
(dp7098
g1976
I1
ss(g4359
g4362
tp7099
(dp7100
g5917
I1
ss(g4300
g5352
tp7101
(dp7102
g6575
I1
ss(g3174
g16
tp7103
(dp7104
g4674
I1
sg1195
I1
ss(g2099
g2102
tp7105
(dp7106
g3150
I1
ss(g1769
g2292
tp7107
(dp7108
g34
I1
ss(g4362
g5917
tp7109
(dp7110
g5918
I1
ss(g6404
S"Minister's"
p7111
tp7112
(dp7113
S'discussions'
p7114
I1
ss(g7111
g7114
tp7115
(dp7116
g3093
I1
ss(g260
g6419
tp7117
(dp7118
g34
I1
sg16
I1
ss(S'United'
p7119
g2559
tp7120
(dp7121
g34
I1
sg5456
I1
sg16
I1
sg2560
I1
sg6284
I1
sg1774
I1
ss(g6424
g16
tp7122
(dp7123
S'Relations'
p7124
I1
ss(g923
g927
tp7125
(dp7126
S'Thailand.'
p7127
I1
ss(g1605
g3079
tp7128
(dp7129
g16
I1
ss(g3629
g3632
tp7130
(dp7131
g34
I1
ss(g5886
g5889
tp7132
(dp7133
g34
I1
ss(g260
g6413
tp7134
(dp7135
g16
I2
ss(g16
g3080
tp7136
(dp7137
g39
I1
ss(g7041
g3971
tp7138
(dp7139
g34
I1
ss(g5280
g2170
tp7140
(dp7141
g4752
I1
ss(g5399
g16
tp7142
(dp7143
g6163
I1
ss(g5655
S'Association'
p7144
tp7145
(dp7146
g34
I1
ss(g2593
g1761
tp7147
(dp7148
g1762
I1
ss(g881
g1906
tp7149
(dp7150
g3478
I1
sg2344
I2
ss(g5024
g1015
tp7151
(dp7152
S'1957'
p7153
I1
sg1016
I1
ss(g5113
g2392
tp7154
(dp7155
g1412
I2
ss(g2446
g3972
tp7156
(dp7157
g16
I1
ss(g16
g661
tp7158
(dp7159
g3891
I1
ss(g6408
S'Ante'
p7160
tp7161
(dp7162
g34
I1
ss(g4066
g4069
tp7163
(dp7164
g3881
I1
ss(g260
g5521
tp7165
(dp7166
g2074
I1
ss(g328
g1423
tp7167
(dp7168
g1424
I1
ss(S'Dr'
p7169
g618
tp7170
(dp7171
g619
I1
ss(g5992
g4966
tp7172
(dp7173
g4967
I1
ss(g16
g5356
tp7174
(dp7175
g5357
I1
ss(g838
g841
tp7176
(dp7177
g34
I1
ss(g16
g5108
tp7178
(dp7179
g114
I1
ss(g4218
g6092
tp7180
(dp7181
g39
I1
ss(g3110
g4960
tp7182
(dp7183
S'assessments'
p7184
I1
ss(g16
g746
tp7185
(dp7186
g2997
I3
ss(g1925
g1928
tp7187
(dp7188
g5933
I1
ss(g16
g1944
tp7189
(dp7190
g1945
I1
ss(g6938
g16
tp7191
(dp7192
S'naturalization'
p7193
I1
ss(g260
g6418
tp7194
(dp7195
g5627
I1
ss(g16
g2846
tp7196
(dp7197
g2847
I1
ss(g5152
g5155
tp7198
(dp7199
g1453
I1
ss(g261
g264
tp7200
(dp7201
g6296
I2
ss(g260
g1855
tp7202
(dp7203
g1856
I1
ss(g16
g3416
tp7204
(dp7205
g4824
I1
ss(g194
g197
tp7206
(dp7207
g39
I1
ss(g6230
g6696
tp7208
(dp7209
S'November'
p7210
I1
ss(S'ASIS'
p7211
S'document:'
p7212
tp7213
(dp7214
S'Report'
p7215
I1
sg312
I1
ss(g4096
g4707
tp7216
(dp7217
g3794
I1
ss(g1071
g16
tp7218
(dp7219
g2140
I1
sS'Joint'
p7220
I2
sg6337
I1
ss(g4902
g4841
tp7221
(dp7222
g4842
I1
ss(g1377
g1380
tp7223
(dp7224
g4342
I2
ss(g260
g4346
tp7225
(dp7226
g4347
I1
ss(g3997
S'Negotiations'
p7227
tp7228
(dp7229
g34
I2
ss(g260
g779
tp7230
(dp7231
g16
I8
ss(g3032
g3035
tp7232
(dp7233
g34
I1
ss(g5730
g4851
tp7234
(dp7235
g4852
I1
ss(S'Security'
p7236
g5407
tp7237
(dp7238
g5408
I1
ss(g3671
g3674
tp7239
(dp7240
g34
I1
ss(g260
g6408
tp7241
(dp7242
g7160
I1
ss(g4606
g4609
tp7243
(dp7244
S'SEA.'
p7245
I1
sS'South'
p7246
I1
ss(g260
g6406
tp7247
(dp7248
g860
I1
ss(g3816
g6148
tp7249
(dp7250
g1999
I1
ss(g16
g4374
tp7251
(dp7252
g39
I1
sg2553
I1
sg2554
I4
sg3963
I1
ss(g16
g6337
tp7253
(dp7254
g3670
I1
ss(g3651
g184
tp7255
(dp7256
g185
I1
ss(g6437
S'of'
p7257
tp7258
(dp7259
g5825
I3
sg1683
I2
ss(g217
g220
tp7260
(dp7261
S'experts'
p7262
I1
ss(g280
g1123
tp7263
(dp7264
g1124
I1
ss(g16
g3043
tp7265
(dp7266
g3522
I1
ss(g260
g5885
tp7267
(dp7268
g5886
I1
sg16
I1
sg306
I2
sg2448
I1
ss(g3045
g3048
tp7269
(dp7270
S'and'
p7271
I1
ss(g260
g5498
tp7272
(dp7273
g5499
I1
ss(g260
g2305
tp7274
(dp7275
g2306
I2
ss(g16
g4917
tp7276
(dp7277
S'Security'
p7278
I4
sg5912
I1
ss(g5457
g5460
tp7279
(dp7280
S'Islands'
p7281
I1
ss(g6697
g6700
tp7282
(dp7283
g34
I1
ss(g3829
g3832
tp7284
(dp7285
g5087
I1
ss(g2679
g651
tp7286
(dp7287
g652
I1
ss(g1959
g1962
tp7288
(dp7289
g6697
I1
ss(g803
g806
tp7290
(dp7291
g1033
I2
ss(g6160
S'Communist'
p7292
tp7293
(dp7294
S'Party'
p7295
I1
ss(g516
g520
tp7296
(dp7297
g6665
I1
ss(g1805
g5688
tp7298
(dp7299
S'and'
p7300
I1
ss(g1259
g16
tp7301
(dp7302
S'General'
p7303
I1
ss(g16
g5554
tp7304
(dp7305
g4832
I1
ss(g3963
g3454
tp7306
(dp7307
g39
I1
ss(g3406
g5056
tp7308
(dp7309
g34
I2
ss(g4390
g6313
tp7310
(dp7311
g5174
I1
ss(g4917
g7278
tp7312
(dp7313
g34
I4
ss(g3074
g3375
tp7314
(dp7315
g5416
I1
ss(g4243
g4038
tp7316
(dp7317
g1382
I1
sg2037
I1
ss(g5983
g2815
tp7318
(dp7319
g2554
I1
ss(g180
g183
tp7320
(dp7321
g5964
I1
ss(g6405
g5271
tp7322
(dp7323
g16
I2
sg6854
I1
ss(g388
g4677
tp7324
(dp7325
g4678
I1
ss(g16
g675
tp7326
(dp7327
g3270
I1
ss(g16
g134
tp7328
(dp7329
g16
I5
sg2033
I1
sg3366
I1
ss(g6911
g5528
tp7330
(dp7331
g16
I1
ss(g16
g744
tp7332
(dp7333
g6516
I1
sS'and'
p7334
I1
sg124
I1
sg5296
I1
sS'Committee'
p7335
I1
ss(S'for'
p7336
g4163
tp7337
(dp7338
g4164
I1
ss(S'Western'
p7339
g3747
tp7340
(dp7341
g2112
I1
sg6794
I1
sg4966
I1
sS'Freemantle'
p7342
I1
sg3603
I1
sg4892
I1
ss(g3977
g5270
tp7343
(dp7344
g5034
I1
ss(g260
g6422
tp7345
(dp7346
S'China'
p7347
I1
ss(g7057
g7060
tp7348
(dp7349
S'counter'
p7350
I1
ss(g4850
S'area'
p7351
tp7352
(dp7353
g34
I2
ss(g6199
S'in'
p7354
tp7355
(dp7356
S'the'
p7357
I1
ss(g5598
g2536
tp7358
(dp7359
g1932
I1
sg2537
I1
ss(g260
g6420
tp7360
(dp7361
S'Commission'
p7362
I2
ss(g6427
S'Intelligence'
p7363
tp7364
(dp7365
g16
I1
ss(g260
g4025
tp7366
(dp7367
g4026
I1
ss(g16
g4096
tp7368
(dp7369
g4707
I1
ss(g1292
g1295
tp7370
(dp7371
g3504
I2
ss(g5408
g4512
tp7372
(dp7373
g16
I1
ss(g110
g113
tp7374
(dp7375
g16
I1
ss(g6412
g6205
tp7376
(dp7377
g544
I1
ss(g16
g1759
tp7378
(dp7379
g4728
I1
ss(g3665
g438
tp7380
(dp7381
g439
I1
ss(S'NSW'
p7382
g1611
tp7383
(dp7384
g3519
I1
ss(g1812
g1815
tp7385
(dp7386
g16
I1
ss(g16
S'October'
p7387
tp7388
(dp7389
S'1955'
p7390
I1
ss(g2584
g267
tp7391
(dp7392
g6475
I1
sg3346
I1
ss(g423
S'of'
p7393
tp7394
(dp7395
g5162
I1
ss(S'the'
p7396
g3065
tp7397
(dp7398
S'Delegation'
p7399
I2
sg2888
I1
ss(g97
g39
tp7400
(dp7401
g34
I1
ss(g3994
g1048
tp7402
(dp7403
g1049
I1
ss(S'the'
p7404
g3061
tp7405
(dp7406
g6748
I2
ss(g4182
g1292
tp7407
(dp7408
g2832
I1
ss(g576
g5131
tp7409
(dp7410
g34
I1
ss(g6040
S'meetings'
p7411
tp7412
(dp7413
g34
I1
ss(S'counter'
p7414
g1848
tp7415
(dp7416
g1849
I2
ss(g5632
g2883
tp7417
(dp7418
g2884
I1
ss(g3485
g3021
tp7419
(dp7420
g3022
I1
ss(g5964
g3002
tp7421
(dp7422
g3003
I1
ss(g5631
g3398
tp7423
(dp7424
g160
I1
sg3399
I1
ss(S'Advisers'
p7425
g3196
tp7426
(dp7427
g3197
I1
ss(g260
g6431
tp7428
(dp7429
g3162
I1
sg1157
I1
ss(g4824
g1749
tp7430
(dp7431
g1750
I1
ss(g16
g5998
tp7432
(dp7433
g3622
I1
ss(g260
g1801
tp7434
(dp7435
g1802
I1
ss(S'Paas,'
p7436
g6546
tp7437
(dp7438
g7074
I1
ss(g4980
g16
tp7439
(dp7440
g2153
I1
ss(S'and'
p7441
S'certain'
p7442
tp7443
(dp7444
g6926
I1
ss(g6107
S'to'
p7445
tp7446
(dp7447
g169
I1
ss(g989
g2438
tp7448
(dp7449
g2439
I1
ss(g2709
g118
tp7450
(dp7451
g119
I1
ss(g2399
g5173
tp7452
(dp7453
g6966
I1
ss(g6181
g1254
tp7454
(dp7455
g1255
I1
ss(g16
g4326
tp7456
(dp7457
g4789
I1
ss(g6033
g4303
tp7458
(dp7459
g4304
I1
ss(g16
S'Correspondence'
p7460
tp7461
(dp7462
g34
I1
ss(g6541
S'March'
p7463
tp7464
(dp7465
S'1956'
p7466
I1
ss(g260
g4197
tp7467
(dp7468
g945
I1
ss(g3106
g16
tp7469
(dp7470
g7387
I1
ss(g5004
g3451
tp7471
(dp7472
g995
I1
ss(g1011
g1014
tp7473
(dp7474
S'1955-1956'
p7475
I1
ss(g4347
g4350
tp7476
(dp7477
g34
I1
ss(g6414
g16
tp7478
(dp7479
S'illegal'
p7480
I1
sg4518
I1
ss(g2309
g16
tp7481
(dp7482
g4104
I2
ss(g999
g6553
tp7483
(dp7484
g2013
I1
ss(g1355
g1358
tp7485
(dp7486
g6643
I1
ss(g966
g16
tp7487
(dp7488
g5435
I2
ss(g260
g846
tp7489
(dp7490
g847
I1
ss(g5998
g3622
tp7491
(dp7492
g3623
I1
sg4536
I1
sg2298
I1
ss(g1642
g91
tp7493
(dp7494
g92
I1
ss(g4009
g4012
tp7495
(dp7496
g2810
I1
ss(g3615
g933
tp7497
(dp7498
g934
I1
ss(g3638
g16
tp7499
(dp7500
S'Joint'
p7501
I1
ss(g519
g1658
tp7502
(dp7503
g1659
I2
ss(g5952
g5955
tp7504
(dp7505
g6049
I1
ss(g206
S'Classification'
p7506
tp7507
(dp7508
g6467
I1
ss(g6415
g1544
tp7509
(dp7510
g16
I1
ss(g3876
g3457
tp7511
(dp7512
g3458
I1
ss(g3365
g6673
tp7513
(dp7514
g34
I1
ss(g6030
g6033
tp7515
(dp7516
g4303
I1
ss(g927
g7127
tp7517
(dp7518
g34
I1
ss(g2614
g2617
tp7519
(dp7520
g3066
I1
ss(g1523
g1874
tp7521
(dp7522
g1875
I1
ss(g5638
S'Singapore,'
p7523
tp7524
(dp7525
g5119
I1
ss(g237
g240
tp7526
(dp7527
g34
I1
ss(g1080
g1083
tp7528
(dp7529
g16
I1
ss(g1916
g39
tp7530
(dp7531
g34
I1
ss(g4769
g4712
tp7532
(dp7533
g4713
I1
ss(g820
g823
tp7534
(dp7535
g16
I1
ss(g4713
g16
tp7536
(dp7537
g3511
I1
ss(g828
g3261
tp7538
(dp7539
g4805
I1
ss(g1353
g4883
tp7540
(dp7541
g1204
I1
ss(g4063
g7027
tp7542
(dp7543
g34
I1
ss(g3059
g6326
tp7544
(dp7545
g6327
I1
ss(S'HMAS'
p7546
g5926
tp7547
(dp7548
S'Tenders'
p7549
I1
ss(g1574
g3727
tp7550
(dp7551
g3754
I3
ss(g719
g2676
tp7552
(dp7553
S'Company'
p7554
I1
ss(g339
g342
tp7555
(dp7556
g3679
I2
ss(g4155
g4158
tp7557
(dp7558
g34
I1
ss(g3946
g3949
tp7559
(dp7560
g4119
I1
ss(g2229
g2232
tp7561
(dp7562
g34
I1
ss(S'December'
p7563
g5778
tp7564
(dp7565
g34
I1
ss(g7347
g4168
tp7566
(dp7567
g4169
I1
ss(g6410
g6754
tp7568
(dp7569
g16
I1
ss(g4456
g4459
tp7570
(dp7571
g34
I1
sg1861
I1
ss(g3775
g2859
tp7572
(dp7573
g2860
I1
ss(S'with'
p7574
g3360
tp7575
(dp7576
g34
I2
ss(g746
g2997
tp7577
(dp7578
g2998
I3
ss(g5333
g1819
tp7579
(dp7580
g1820
I1
ss(g2866
g6346
tp7581
(dp7582
g1170
I1
ss(g6683
g612
tp7583
(dp7584
g4327
I1
ss(g6811
g6847
tp7585
(dp7586
g34
I1
ss(g2140
g2143
tp7587
(dp7588
g1700
I1
ss(g918
g921
tp7589
(dp7590
g1981
I1
ss(g16
g5116
tp7591
(dp7592
g6497
I1
ss(g1681
g6541
tp7593
(dp7594
g7463
I1
ss(g260
g6432
tp7595
(dp7596
S'Australia'
p7597
I3
ss(g260
g4151
tp7598
(dp7599
g3932
I1
sg4970
I1
ss(g4210
g4213
tp7600
(dp7601
g16
I1
ss(g5989
g3497
tp7602
(dp7603
S'Vietnam'
p7604
I1
ss(g958
g16
tp7605
(dp7606
g6108
I1
ss(g41
g16
tp7607
(dp7608
g5551
I1
ss(g3190
g1667
tp7609
(dp7610
g1668
I1
ss(g1452
S'Far'
p7611
tp7612
(dp7613
g2854
I1
ss(g101
g104
tp7614
(dp7615
S'and'
p7616
I1
ss(g267
g3950
tp7617
(dp7618
g3951
I6
ss(g695
g16
tp7619
(dp7620
g5554
I1
ss(g6037
g6040
tp7621
(dp7622
g7411
I1
ss(g2201
g2204
tp7623
(dp7624
S'Oswald'
p7625
I1
ss(g7114
g3093
tp7626
(dp7627
g2836
I1
ss(g5472
g711
tp7628
(dp7629
g712
I1
ss(g260
g3486
tp7630
(dp7631
g2731
I1
sg3573
I1
sg3288
I3
sg40
I1
ss(g2136
g2139
tp7632
(dp7633
g34
I1
ss(g260
g1912
tp7634
(dp7635
g1913
I1
ss(g16
g5114
tp7636
(dp7637
g34
I1
ss(g6284
g6287
tp7638
(dp7639
g6979
I1
ss(g6757
g4749
tp7640
(dp7641
g2477
I2
ss(g6432
g7597
tp7642
(dp7643
g16
I3
ss(g1762
g1765
tp7644
(dp7645
g5810
I1
ss(g6413
g16
tp7646
(dp7647
g4737
I1
sS'Political'
p7648
I1
ss(g2120
g4194
tp7649
(dp7650
g3733
I1
ss(g929
g932
tp7651
(dp7652
g4862
I1
ss(g3224
g6007
tp7653
(dp7654
g4044
I1
ss(g5628
g5631
tp7655
(dp7656
g3398
I2
ss(g472
S'Pakistan'
p7657
tp7658
(dp7659
g34
I2
ss(g7089
g6208
tp7660
(dp7661
g4641
I1
ss(g4786
g2333
tp7662
(dp7663
g1131
I1
ss(g260
g4593
tp7664
(dp7665
g16
I1
ss(g5869
g3738
tp7666
(dp7667
g3739
I1
ss(g16
g1754
tp7668
(dp7669
g16
I3
sg5515
I1
ss(g2489
g6306
tp7670
(dp7671
g34
I1
ss(g260
g6424
tp7672
(dp7673
g16
I1
ss(g7335
g1966
tp7674
(dp7675
g1967
I1
ss(g4493
g2517
tp7676
(dp7677
g2518
I1
ss(g1515
g949
tp7678
(dp7679
g950
I1
ss(g2970
g6241
tp7680
(dp7681
g34
I1
ss(g5383
g4082
tp7682
(dp7683
g2241
I3
ss(g5918
g5921
tp7684
(dp7685
g5384
I1
ss(g6402
g2895
tp7686
(dp7687
g1147
I2
ss(g6418
g5627
tp7688
(dp7689
g5628
I1
ss(g4887
g4615
tp7690
(dp7691
g4616
I1
ss(g815
g818
tp7692
(dp7693
g2408
I1
ss(g4794
g4948
tp7694
(dp7695
g16
I1
sg3548
I1
sg5319
I1
ss(g6523
g6911
tp7696
(dp7697
g5528
I1
sS'Activities'
p7698
I1
ss(g2521
g5472
tp7699
(dp7700
g711
I1
ss(g16
g5927
tp7701
(dp7702
g5928
I1
ss(g2112
g2115
tp7703
(dp7704
g34
I1
ss(g242
g245
tp7705
(dp7706
g4884
I1
ss(g72
g75
tp7707
(dp7708
g154
I1
ss(g3854
g5981
tp7709
(dp7710
g338
I2
ss(g6310
g16
tp7711
(dp7712
g5050
I1
ss(g4423
g2599
tp7713
(dp7714
g2600
I1
ss(S'SEATO.'
p7715
g855
tp7716
(dp7717
g3211
I1
ss(g1612
g4910
tp7718
(dp7719
g4911
I1
ss(g3124
g2469
tp7720
(dp7721
g2470
I1
ss(g16
g1359
tp7722
(dp7723
g1360
I1
sg5057
I1
ss(g4762
g4765
tp7724
(dp7725
g34
I1
ss(g260
g6405
tp7726
(dp7727
g4982
I1
sg16
I2
sg5271
I3
sg5229
I1
ss(g3904
g3907
tp7728
(dp7729
S'1958'
p7730
I1
ss(g1385
g4980
tp7731
(dp7732
g16
I1
ss(g16
g3395
tp7733
(dp7734
g1940
I1
ss(g3146
g3149
tp7735
(dp7736
g4013
I1
ss(S'Victoria'
p7737
g2331
tp7738
(dp7739
g4584
I1
ss(g1637
g1640
tp7740
(dp7741
g16
I1
ss(g723
g2894
tp7742
(dp7743
g16
I1
ss(g1820
g1823
tp7744
(dp7745
g34
I1
ss(S'Foreign'
p7746
g3973
tp7747
(dp7748
g3974
I1
ss(g2889
g1433
tp7749
(dp7750
g1434
I1
ss(g2532
g2535
tp7751
(dp7752
g4535
I1
ss(g260
g6427
tp7753
(dp7754
g7363
I1
sg3886
I1
ss(g926
g5605
tp7755
(dp7756
g1092
I1
ss(g994
g1440
tp7757
(dp7758
g6030
I1
ss(g1589
g2347
tp7759
(dp7760
g53
I1
ss(g5999
S'Forces'
p7761
tp7762
(dp7763
g34
I1
ss(g1882
g6160
tp7764
(dp7765
g7292
I1
ss(g3391
g3394
tp7766
(dp7767
g6020
I1
sg5762
I1
ss(g260
g3576
tp7768
(dp7769
g1509
I1
ss(g6021
g5322
tp7770
(dp7771
g5323
I1
ss(g4021
g4024
tp7772
(dp7773
g4795
I1
ss(g6411
g2880
tp7774
(dp7775
g2641
I1
ss(g368
g371
tp7776
(dp7777
g5217
I1
ss(g5909
g179
tp7778
(dp7779
g180
I1
ss(g5050
g5053
tp7780
(dp7781
g34
I1
ss(g3279
g3282
tp7782
(dp7783
g6816
I1
ss(g26
g29
tp7784
(dp7785
S'and'
p7786
I5
ss(g357
g362
tp7787
(dp7788
g3482
I1
ss(g5652
g5655
tp7789
(dp7790
g7144
I1
ss(g707
g710
tp7791
(dp7792
g34
I1
ss(g1228
g1231
tp7793
(dp7794
g2554
I1
ss(g6231
g1991
tp7795
(dp7796
g1992
I1
ss(g694
g5660
tp7797
(dp7798
S'East'
p7799
I1
ss(g39
g16
tp7800
(dp7801
g6834
I1
ss(g1029
g1032
tp7802
(dp7803
g2022
I1
ss(g3137
g16
tp7804
(dp7805
S'Title'
p7806
I1
ss(g607
g611
tp7807
(dp7808
g6064
I1
sS're'
p7809
I1
sg16
I2
sg6128
I1
sg5407
I1
ss(g16
g6107
tp7810
(dp7811
g7445
I1
ss(g6400
g4381
tp7812
(dp7813
g3461
I1
ss(g3910
g5862
tp7814
(dp7815
g34
I1
ss(g1040
g1043
tp7816
(dp7817
g1152
I1
ss(g4435
g6905
tp7818
(dp7819
g3096
I1
ss(g5727
g5730
tp7820
(dp7821
g4851
I1
ss(g1014
g7475
tp7822
(dp7823
g34
I1
ss(g973
g442
tp7824
(dp7825
g443
I1
ss(g260
g6423
tp7826
(dp7827
g16
I2
ss(g2430
g4228
tp7828
(dp7829
g4231
I1
ss(S'Australia,'
p7830
g7342
tp7831
(dp7832
S'branch.'
p7833
I1
ss(g260
g2252
tp7834
(dp7835
g2253
I1
ss(g6575
g6578
tp7836
(dp7837
g34
I1
ss(g1113
g1116
tp7838
(dp7839
g3960
I1
ss(g260
g4113
tp7840
(dp7841
g690
I1
ss(g260
g6403
tp7842
(dp7843
g34
I1
ss(g1650
g1364
tp7844
(dp7845
g1365
I1
ss(S'Affairs'
p7846
g1236
tp7847
(dp7848
g1237
I1
ss(g2958
g352
tp7849
(dp7850
g353
I1
ss(g3618
g3621
tp7851
(dp7852
g34
I1
ss(g3560
g532
tp7853
(dp7854
g533
I1
ss(g260
g6429
tp7855
(dp7856
S'Gildo'
p7857
I1
ss(g5233
g5236
tp7858
(dp7859
g3528
I1
ss(g3369
g3372
tp7860
(dp7861
g2454
I1
sg5404
I1
ss(g611
g7809
tp7862
(dp7863
g3036
I1
ss(g146
g16
tp7864
(dp7865
S'Part'
p7866
I1
ss(S'Communist'
p7867
g423
tp7868
(dp7869
g7393
I1
ss(S'Asia'
p7870
g630
tp7871
(dp7872
g631
I1
ss(g1060
g5328
tp7873
(dp7874
g34
I1
ss(g2442
g4818
tp7875
(dp7876
S'public'
p7877
I1
ss(g170
g173
tp7878
(dp7879
g4185
I1
ss(g6475
g1907
tp7880
(dp7881
g1908
I1
ss(g16
g35
tp7882
(dp7883
g36
I1
ss(g7523
g5119
tp7884
(dp7885
g5120
I1
ss(g1890
g4058
tp7886
(dp7887
g16
I1
ss(g16
g5107
tp7888
(dp7889
g2375
I1
ss(g3287
g6333
tp7890
(dp7891
g34
I1
ss(g5155
g1453
tp7892
(dp7893
g1454
I1
ss(g6422
g7347
tp7894
(dp7895
g4168
I1
ss(S'resistance'
p7896
g5045
tp7897
(dp7898
g5046
I1
ss(g3557
g3560
tp7899
(dp7900
g532
I1
ss(g4467
g4470
tp7901
(dp7902
g6450
I1
ss(g3385
g2554
tp7903
(dp7904
g34
I1
ss(g533
g536
tp7905
(dp7906
g34
I1
ss(g5710
g5713
tp7907
(dp7908
g34
I1
ss(g6905
g3096
tp7909
(dp7910
g3097
I1
ss(g220
g7262
tp7911
(dp7912
g34
I1
ss(g1815
g16
tp7913
(dp7914
S'Volume'
p7915
I1
sg4626
I1
ss(g6214
g4398
tp7916
(dp7917
g457
I2
ss(g1908
g1911
tp7918
(dp7919
g34
I2
ss(g5163
g5166
tp7920
(dp7921
g34
I1
ss(g7257
g5825
tp7922
(dp7923
g833
I3
ss(g6007
g4044
tp7924
(dp7925
g4045
I1
ss(g1408
g1411
tp7926
(dp7927
g4441
I1
sg356
I1
ss(g1928
g5933
tp7928
(dp7929
g5934
I1
ss(g2204
g7625
tp7930
(dp7931
g34
I1
ss(g260
g6361
tp7932
(dp7933
g5284
I1
ss(g6423
g16
tp7934
(dp7935
g2395
I1
sg3536
I1
ss(g16
g743
tp7936
(dp7937
g6153
I2
ss(g775
S'Conference'
p7938
tp7939
(dp7940
g4562
I2
ss(g270
g5188
tp7941
(dp7942
g5189
I1
ss(S'ending'
p7943
g3307
tp7944
(dp7945
g34
I1
ss(g2788
g3088
tp7946
(dp7947
g34
I1
ss(g16
g2785
tp7948
(dp7949
g2392
I2
sg16
I1
ss(g7387
g7390
tp7950
(dp7951
g34
I1
ss(g3536
g3539
tp7952
(dp7953
g4654
I1
ss(g6426
g6732
tp7954
(dp7955
g16
I1
ss(g7363
g16
tp7956
(dp7957
g4688
I1
ss(S'of'
p7958
g3138
tp7959
(dp7960
g34
I1
sg3139
I1
ss(g2802
g1614
tp7961
(dp7962
g16
I1
ss(g1341
g3051
tp7963
(dp7964
g16
I1
ss(g3683
g6757
tp7965
(dp7966
g4749
I2
ss(g5192
g2664
tp7967
(dp7968
g2665
I1
ss(g5019
g6852
tp7969
(dp7970
S'Report'
p7971
I1
ss(g302
g305
tp7972
(dp7973
g3174
I6
ss(g4291
g4441
tp7974
(dp7975
g3424
I1
sg3264
I2
sg2149
I1
sg7506
I1
sg6021
I1
ss(g5049
g5624
tp7976
(dp7977
g6460
I1
ss(g2084
g3302
tp7978
(dp7979
g6587
I1
ss(g2246
g2249
tp7980
(dp7981
g16
I1
ss(g260
g6416
tp7982
(dp7983
g6938
I1
ss(g5305
g2703
tp7984
(dp7985
g2704
I3
ss(g260
g3241
tp7986
(dp7987
g1292
I1
ss(g16
S'Legal'
p7988
tp7989
(dp7990
S'position'
p7991
I1
ss(g2359
g5638
tp7992
(dp7993
g7523
I1
ss(g260
g6401
tp7994
(dp7995
g7896
I1
ss(g4397
g16
tp7996
(dp7997
g7988
I1
ss(g1704
g2388
tp7998
(dp7999
g16
I1
ss(S'Australia,'
p8000
g3603
tp8001
(dp8002
g3604
I1
ss(g3399
g425
tp8003
(dp8004
g426
I1
ss(g5439
g2486
tp8005
(dp8006
g16
I1
ss(g3220
g6016
tp8007
(dp8008
g6017
I1
ss(g1127
g1130
tp8009
(dp8010
g1449
I1
ss(g2814
g6199
tp8011
(dp8012
g7354
I1
ss(g385
g388
tp8013
(dp8014
g4677
I1
ss(g2758
g2761
tp8015
(dp8016
g6631
I1
ss(g4920
g4923
tp8017
(dp8018
g34
I1
ss(S'NSW'
p8019
g1610
tp8020
(dp8021
g2030
I1
ss(g3987
g5515
tp8022
(dp8023
g5516
I1
ss(g6792
g1970
tp8024
(dp8025
g2620
I1
ss(g1169
g3857
tp8026
(dp8027
g4163
I1
sg4606
I1
ss(g6764
g4541
tp8028
(dp8029
g34
I1
ss(g3192
g3195
tp8030
(dp8031
g34
I1
ss(g3742
g5939
tp8032
(dp8033
g2205
I1
ss(g4847
g4850
tp8034
(dp8035
g7351
I2
ss(g4835
g4838
tp8036
(dp8037
S're'
p8038
I2
ss(S'Affairs'
p8039
g2639
tp8040
(dp8041
g2522
I1
ss(S'International'
p8042
g1209
tp8043
(dp8044
g3385
I1
ss(g6429
g7857
tp8045
(dp8046
g34
I1
ss(g2971
g706
tp8047
(dp8048
g707
I1
ss(g5851
g1929
tp8049
(dp8050
g635
I3
ss(g5168
g2257
tp8051
(dp8052
g2258
I1
ss(g260
g5677
tp8053
(dp8054
g5678
I1
ss(g578
g581
tp8055
(dp8056
g5013
I1
ss(g3154
g5301
tp8057
(dp8058
g5302
I1
ss(g863
g2195
tp8059
(dp8060
g1529
I1
ss(g1038
g2594
tp8061
(dp8062
g2595
I2
sg4073
I1
ss(g3969
g6678
tp8063
(dp8064
g34
I1
ss(g1246
g1249
tp8065
(dp8066
g34
I1
ss(S'meeting'
p8067
g7048
tp8068
(dp8069
S'1959'
p8070
I1
ss(S'Security'
p8071
g16
tp8072
(dp8073
g4645
I1
sg2246
I1
ss(g3478
g3481
tp8074
(dp8075
g5670
I1
ss(g2707
g4846
tp8076
(dp8077
g4847
I2
sS'East'
p8078
I1
ss(g1329
g1332
tp8079
(dp8080
g7336
I1
ss(g3061
g6748
tp8081
(dp8082
g6749
I2
ss(S'March'
p8083
g7153
tp8084
(dp8085
g34
I1
ss(g3267
g361
tp8086
(dp8087
g3820
I1
ss(g16
g4462
tp8088
(dp8089
g4463
I1
ss(g16
g2215
tp8090
(dp8091
S'schools'
p8092
I1
sg2216
I1
ss(g5878
g2025
tp8093
(dp8094
g586
I1
sg2936
I2
sg4949
I1
sg5481
I1
sg4265
I2
ss(g5111
g5689
tp8095
(dp8096
g2277
I1
ss(g701
g6180
tp8097
(dp8098
g34
I1
ss(g2473
g2476
tp8099
(dp8100
g16
I1
sg3758
I1
ss(g1948
g1954
tp8101
(dp8102
g3763
I4
ss(g7210
S'1946'
p8103
tp8104
(dp8105
g34
I1
ss(g932
g4862
tp8106
(dp8107
g4863
I1
ss(g7342
g7833
tp8108
(dp8109
g34
I1
ss(g2523
g2526
tp8110
(dp8111
g34
I1
ss(g1282
g1285
tp8112
(dp8113
g4005
I1
ss(g2563
g4526
tp8114
(dp8115
g16
I1
ss(g260
g6404
tp8116
(dp8117
g7111
I1
ss(g3446
g6474
tp8118
(dp8119
g34
I1
ss(g1620
g1623
tp8120
(dp8121
g4384
I1
ss(g5096
g16
tp8122
(dp8123
g3713
I1
ss(g7069
g3060
tp8124
(dp8125
g16
I1
ss(g1179
g4802
tp8126
(dp8127
S'Curacao'
p8128
I1
ss(g1856
g1859
tp8129
(dp8130
g16
I1
ss(g1699
g394
tp8131
(dp8132
g395
I1
ss(g260
g3465
tp8133
(dp8134
g3466
I1
ss(g1499
g1502
tp8135
(dp8136
g34
I2
ss(g2775
g2778
tp8137
(dp8138
g34
I1
ss(g7877
S'support'
p8139
tp8140
(dp8141
g34
I1
ss(g3310
g3313
tp8142
(dp8143
g16
I1
ss(S'Tasmania,'
p8144
g8092
tp8145
(dp8146
g34
I1
ss(g6307
g6310
tp8147
(dp8148
g16
I1
ss(g16
g5111
tp8149
(dp8150
g5689
I1
ss(g6128
g5664
tp8151
(dp8152
g5665
I1
ss(g6910
g515
tp8153
(dp8154
g516
I1
ss(g2924
g3635
tp8155
(dp8156
g4021
I1
ss(g326
g5473
tp8157
(dp8158
g899
I1
ss(S'Organization'
p8159
g3177
tp8160
(dp8161
g7057
I1
sg1117
I2
ss(g1982
g799
tp8162
(dp8163
g367
I1
ss(g3737
g16
tp8164
(dp8165
g2841
I1
ss(g4012
g2810
tp8166
(dp8167
g2811
I1
ss(S'Wales,'
p8168
g1733
tp8169
(dp8170
g16
I1
ss(g2258
g2261
tp8171
(dp8172
g34
I1
ss(g6425
S'seals'
p8173
tp8174
(dp8175
g34
I1
ss(g3869
g3872
tp8176
(dp8177
g5258
I1
ss(S'intelligence'
p8178
g4473
tp8179
(dp8180
g4474
I1
ss(S'satellite'
p8181
g7020
tp8182
(dp8183
g34
I1
ss(g7809
g3036
tp8184
(dp8185
g3037
I1
ss(g4376
g16
tp8186
(dp8187
g333
I1
ss(g1449
g1452
tp8188
(dp8189
g7611
I1
ss(g4776
g4779
tp8190
(dp8191
g4902
I1
ss(g4720
g4694
tp8192
(dp8193
g4695
I1
sg4907
I1
ss(g2505
g2508
tp8194
(dp8195
g3250
I1
ss(g16
g5999
tp8196
(dp8197
g6166
I1
sg7761
I1
ss(g1933
g16
tp8198
(dp8199
g3618
I1
ss(g1951
g7211
tp8200
(dp8201
g7212
I1
ss(g1102
g1105
tp8202
(dp8203
g4411
I1
ss(g5670
g5138
tp8204
(dp8205
g5139
I1
ss(g5357
g5360
tp8206
(dp8207
g34
I1
ss(g8038
g5040
tp8208
(dp8209
g3850
I2
ss(g7915
g2553
tp8210
(dp8211
g34
I2
ss(g3058
g16
tp8212
(dp8213
S'paper'
p8214
I1
ss(g4407
g4410
tp8215
(dp8216
g3963
I1
ss(g16
g5223
tp8217
(dp8218
g5224
I1
ss(g4265
g1806
tp8219
(dp8220
g7442
I1
sg1860
I1
sg1807
I1
ss(S'to'
p8221
g7053
tp8222
(dp8223
g34
I1
ss(g3729
g3732
tp8224
(dp8225
g5727
I1
ss(g4587
g4590
tp8226
(dp8227
g34
I1
ss(g2682
g4051
tp8228
(dp8229
g8042
I1
ss(g4058
g16
tp8230
(dp8231
g1520
I1
ss(g1783
g1786
tp8232
(dp8233
g1843
I1
ss(g5434
g7698
tp8234
(dp8235
g34
I1
ss(g469
g472
tp8236
(dp8237
g7657
I2
sg3640
I1
ss(g738
g4874
tp8238
(dp8239
g2796
I1
ss(g3337
S'Military'
p8240
tp8241
(dp8242
g7425
I1
ss(g4213
g16
tp8243
(dp8244
g4745
I1
ss(g4159
g4162
tp8245
(dp8246
g34
I1
ss(g260
g824
tp8247
(dp8248
g825
I1
ss(g3168
g2427
tp8249
(dp8250
g16
I1
ss(g4818
g7877
tp8251
(dp8252
g8139
I1
ss(g3215
g3720
tp8253
(dp8254
g3784
I1
ss(S'Asia'
p8255
g16
tp8256
(dp8257
g6515
I1
sg1695
I1
sg5356
I1
ss(g260
g602
tp8258
(dp8259
g16
I1
ss(g2448
g1677
tp8260
(dp8261
g1678
I1
ss(g3142
g3990
tp8262
(dp8263
g34
I1
ss(g5363
g5366
tp8264
(dp8265
S'Australia'
p8266
I1
ss(g260
g4598
tp8267
(dp8268
g4599
I6
ss(g1148
g1151
tp8269
(dp8270
g4991
I2
ss(S'Affairs'
p8271
g2640
tp8272
(dp8273
g5851
I1
ss(g16
g3997
tp8274
(dp8275
g3107
I1
sg7227
I2
ss(g6330
g5570
tp8276
(dp8277
g5571
I1
ss(g3412
g4319
tp8278
(dp8279
g34
I1
ss(g2698
g2683
tp8280
(dp8281
g2684
I3
ss(g6401
g7896
tp8282
(dp8283
g5045
I1
ss(g1636
g3916
tp8284
(dp8285
g34
I1
ss(g6852
g7971
tp8286
(dp8287
g4420
I1
ss(g351
g4556
tp8288
(dp8289
g5869
I1
ss(g744
g7335
tp8290
(dp8291
g1966
I1
sg16
I5
sS'meeting,'
p8292
I1
sg5799
I1
sg1797
I2
ss(g610
g4222
tp8293
(dp8294
g4223
I2
ss(g4398
g457
tp8295
(dp8296
g458
I2
ss(g260
g2364
tp8297
(dp8298
g2365
I2
ss(g1671
g4320
tp8299
(dp8300
g34
I1
ss(g2482
g2485
tp8301
(dp8302
g34
I1
ss(g315
g2061
tp8303
(dp8304
g2062
I1
ss(g6696
g7210
tp8305
(dp8306
g8103
I1
ss(g6406
g860
tp8307
(dp8308
g16
I1
ss(S'Australia'
p8309
g3664
tp8310
(dp8311
g3182
I1
ss(g1295
g3504
tp8312
(dp8313
g3505
I2
ss(g1231
g2554
tp8314
(dp8315
g34
I1
ss(g7080
g2332
tp8316
(dp8317
g2512
I1
ss(g3011
g3014
tp8318
(dp8319
S'Department'
p8320
I1
ss(g1566
g1569
tp8321
(dp8322
g2774
I1
ss(g5928
g3490
tp8323
(dp8324
g3491
I1
ss(g4842
g4845
tp8325
(dp8326
g7414
I1
ss(g2676
g7554
tp8327
(dp8328
g34
I1
ss(g6995
g1932
tp8329
(dp8330
g1933
I1
ss(g5274
g6437
tp8331
(dp8332
g7257
I5
ss(g260
g6252
tp8333
(dp8334
g1073
I1
ss(g4734
g1590
tp8335
(dp8336
g1591
I2
sg34
I1
ss(g2460
g16
tp8337
(dp8338
g7460
I1
ss(g2555
g2558
tp8339
(dp8340
g34
I1
ss(g1444
g5704
tp8341
(dp8342
g4681
I1
ss(g2083
g4565
tp8343
(dp8344
g6701
I2
sg5097
I1
ss(g16
g1709
tp8345
(dp8346
g1710
I1
ss(g5714
g16
tp8347
(dp8348
S'Relations'
p8349
I1
ss(g4024
g4795
tp8350
(dp8351
g4796
I2
ss(g4802
g8128
tp8352
(dp8353
g34
I1
ss(g1497
g685
tp8354
(dp8355
g686
I1
ss(g5906
g5909
tp8356
(dp8357
g179
I1
ss(g1297
g1300
tp8358
(dp8359
g2614
I1
ss(g2117
g2120
tp8360
(dp8361
g4194
I1
ss(g3372
g2454
tp8362
(dp8363
g771
I1
sg4120
I1
sg2455
I1
sg6208
I1
ss(g6817
g922
tp8364
(dp8365
g923
I1
ss(g641
g5429
tp8366
(dp8367
g6186
I1
ss(g16
g5115
tp8368
(dp8369
g4930
I1
ss(g4341
g6368
tp8370
(dp8371
g34
I1
ss(g2655
g2658
tp8372
(dp8373
g34
I1
ss(S'with'
p8374
g3361
tp8375
(dp8376
g34
I1
ss(g260
g3998
tp8377
(dp8378
g1165
I1
ss(g260
g6425
tp8379
(dp8380
g8173
I1
ss(g16
g2301
tp8381
(dp8382
g2990
I1
ss(S'SEATO'
p8383
g3337
tp8384
(dp8385
g8240
I1
ss(g2571
g2574
tp8386
(dp8387
g1585
I1
ss(g4609
g7245
tp8388
(dp8389
g34
I1
ss(g4883
g1204
tp8390
(dp8391
g1205
I1
ss(g4838
g8038
tp8392
(dp8393
g5040
I2
ss(g312
g315
tp8394
(dp8395
g2061
I1
ss(g1203
g6760
tp8396
(dp8397
g34
I1
ss(g260
g6045
tp8398
(dp8399
g16
I1
ss(g405
g408
tp8400
(dp8401
g3721
I1
ss(g6701
g6704
tp8402
(dp8403
S'Australia'
p8404
I3
ss(g1292
g3244
tp8405
(dp8406
g3320
I1
ss(g3051
g16
tp8407
(dp8408
g2157
I1
ss(g1902
g4829
tp8409
(dp8410
g16
I1
ss(g5926
g7549
tp8411
(dp8412
g16
I1
ss(g4960
g7184
tp8413
(dp8414
g34
I1
ss(g2569
g521
tp8415
(dp8416
g16
I1
ss(g59
g62
tp8417
(dp8418
g7938
I2
sg4451
I1
sg2014
I1
sg3279
I1
sg5814
I1
ss(g6071
g3058
tp8419
(dp8420
g217
I1
sg16
I1
ss(g2914
g4131
tp8421
(dp8422
g6054
I1
ss(g16
g1649
tp8423
(dp8424
g16
I1
ss(g2271
g4550
tp8425
(dp8426
g3216
I1
ss(g5810
g5376
tp8427
(dp8428
g5377
I1
ss(g5499
g16
tp8429
(dp8430
S'Intelligence'
p8431
I1
ss(g16
g2437
tp8432
(dp8433
g6945
I1
ss(S'ANZUS'
p8434
g16
tp8435
(dp8436
g6988
I1
ss(g267
g270
tp8437
(dp8438
g5188
I1
ss(S'ASIO'
p8439
g1951
tp8440
(dp8441
g7211
I1
ss(g4982
g4985
tp8442
(dp8443
g1869
I1
ss(g3805
g2873
tp8444
(dp8445
g16
I1
ss(g1037
g16
tp8446
(dp8447
g468
I1
ss(g2919
g912
tp8448
(dp8449
g913
I1
ss(g3933
g16
tp8450
(dp8451
g3778
I1
ss(g6225
g6261
tp8452
(dp8453
g6262
I1
sssS'state_size'
p8454
I2
sbsg8454
I2
sb.